
SIM808-OLD.elf:     file format elf32-avr

Sections:
Idx Name          Size      VMA       LMA       File off  Algn
  0 .text         00000f14  00000000  00000000  00000094  2**1
                  CONTENTS, ALLOC, LOAD, READONLY, CODE
  1 .data         00000012  00800060  00000f14  00000fa8  2**0
                  CONTENTS, ALLOC, LOAD, DATA
  2 .bss          00000242  00800072  00800072  00000fba  2**0
                  ALLOC
  3 .comment      00000030  00000000  00000000  00000fba  2**0
                  CONTENTS, READONLY

Disassembly of section .text:

00000000 <__vectors>:
   0:	cf c0       	rjmp	.+414    	; 0x1a0 <__ctors_end>
   2:	e9 c0       	rjmp	.+466    	; 0x1d6 <__bad_interrupt>
   4:	e8 c0       	rjmp	.+464    	; 0x1d6 <__bad_interrupt>
   6:	54 c6       	rjmp	.+3240   	; 0xcb0 <__vector_3>
   8:	e6 c0       	rjmp	.+460    	; 0x1d6 <__bad_interrupt>
   a:	e5 c0       	rjmp	.+458    	; 0x1d6 <__bad_interrupt>
   c:	e4 c0       	rjmp	.+456    	; 0x1d6 <__bad_interrupt>
   e:	e3 c0       	rjmp	.+454    	; 0x1d6 <__bad_interrupt>
  10:	e2 c0       	rjmp	.+452    	; 0x1d6 <__bad_interrupt>
  12:	e1 c0       	rjmp	.+450    	; 0x1d6 <__bad_interrupt>
  14:	e0 c0       	rjmp	.+448    	; 0x1d6 <__bad_interrupt>
  16:	ee c1       	rjmp	.+988    	; 0x3f4 <__vector_11>
  18:	3b c1       	rjmp	.+630    	; 0x290 <__vector_12>
  1a:	dd c0       	rjmp	.+442    	; 0x1d6 <__bad_interrupt>
  1c:	dc c0       	rjmp	.+440    	; 0x1d6 <__bad_interrupt>
  1e:	db c0       	rjmp	.+438    	; 0x1d6 <__bad_interrupt>
  20:	da c0       	rjmp	.+436    	; 0x1d6 <__bad_interrupt>
  22:	d9 c0       	rjmp	.+434    	; 0x1d6 <__bad_interrupt>
  24:	d8 c0       	rjmp	.+432    	; 0x1d6 <__bad_interrupt>

00000026 <__trampolines_end>:
  26:	48 01       	movw	r8, r16
  28:	45 01       	movw	r8, r10
  2a:	3a 01       	movw	r6, r20
  2c:	33 01       	movw	r6, r6
  2e:	21 01       	movw	r4, r2
  30:	19 01       	movw	r2, r18
  32:	10 01       	movw	r2, r0
  34:	05 01       	movw	r0, r10
  36:	fe 00       	.word	0x00fe	; ????
  38:	dd 00       	.word	0x00dd	; ????
  3a:	c6 00       	.word	0x00c6	; ????
  3c:	9f 00       	.word	0x009f	; ????
  3e:	96 00       	.word	0x0096	; ????
  40:	88 00       	.word	0x0088	; ????
  42:	86 00       	.word	0x0086	; ????
  44:	7c 00       	.word	0x007c	; ????
  46:	64 00       	.word	0x0064	; ????
  48:	5b 00       	.word	0x005b	; ????
  4a:	58 00       	.word	0x0058	; ????
  4c:	4e 00       	.word	0x004e	; ????

0000004e <cipclose>:
  4e:	2b 43 49 50 43 4c 4f 53 45 00                       +CIPCLOSE.

00000058 <enter>:
  58:	0d 0a 00                                            ...

0000005b <gpsrd>:
  5b:	2b 43 47 4e 53 49 4e 46 00                          +CGNSINF.

00000064 <host>:
  64:	48 6f 73 74 3a 20 6c 75 6b 76 61 64 2e 75 73 65     Host: lukvad.use
  74:	72 6d 64 2e 6e 65 74 00                             rmd.net.

0000007c <http>:
  7c:	20 48 54 54 50 2f 31 2e 31 00                        HTTP/1.1.

00000086 <get_slash>:
  86:	2f 00                                               /.

00000088 <get_token>:
  88:	47 45 54 20 2f 39 34 35 32 32 39 2f 30 00           GET /945229/0.

00000096 <cipsend>:
  96:	2b 43 49 50 53 45 4e 44 00                          +CIPSEND.

0000009f <cipstart>:
  9f:	2b 43 49 50 53 54 41 52 54 3d 22 54 43 50 22 2c     +CIPSTART="TCP",
  af:	22 6c 75 6b 76 61 64 2e 75 73 65 72 6d 64 2e 6e     "lukvad.usermd.n
  bf:	65 74 22 2c 38 30 00                                et",80.

000000c6 <qcgact>:
  c6:	43 6f 6e 6e 65 63 74 69 6f 6e 3a 20 6b 65 65 70     Connection: keep
  d6:	2d 61 6c 69 76 65 00                                -alive.

000000dd <cstt>:
  dd:	2b 43 53 54 54 3d 22 70 6c 75 73 22 2c 22 70 6c     +CSTT="plus","pl
  ed:	75 73 67 73 6d 22 2c 22 70 6c 75 73 67 73 6d 22     usgsm","plusgsm"
	...

000000fe <ciicr>:
  fe:	2b 43 49 49 43 52 00                                +CIICR.

00000105 <qcgatt>:
 105:	2b 43 49 50 53 54 41 54 55 53 00                    +CIPSTATUS.

00000110 <cgatt>:
 110:	2b 43 47 41 54 54 3d 31 00                          +CGATT=1.

00000119 <cmgf>:
 119:	2b 43 4d 47 46 3d 31 00                             +CMGF=1.

00000121 <cmgs>:
 121:	2b 43 4d 47 53 3d 22 35 33 30 31 38 34 34 38 35     +CMGS="530184485
 131:	22 00                                               ".

00000133 <creg>:
 133:	2b 43 49 46 53 52 00                                +CIFSR.

0000013a <gps>:
 13a:	2b 43 47 4e 53 50 57 52 3d 31 00                    +CGNSPWR=1.

00000145 <ate>:
 145:	45 30 00                                            E0.

00000148 <at_>:
 148:	41 54 00                                            AT.

0000014b <__c.2402>:
 14b:	2a 61 4c 6f 46 26 00                                *aLoF&.

00000152 <__c.2400>:
 152:	2a 61 4c 6f 4e 26 00                                *aLoN&.

00000159 <__c.2398>:
 159:	2a 6c 49 6f 46 26 00                                *lIoF&.

00000160 <__c.2396>:
 160:	2a 6c 49 6d 26 00                                   *lIm&.

00000166 <__c.2394>:
 166:	2a 68 45 26 00                                      *hE&.

0000016b <__c.2392>:
 16b:	24 6f 4e 6e 25 00                                   $oNn%.

00000171 <__c.2390>:
 171:	2a 6f 4e 26 00                                      *oN&.

00000176 <__c.2388>:
 176:	2a 6f 46 26 00                                      *oF&.

0000017b <__c.2386>:
 17b:	2a 70 41 26 00                                      *pA&.

00000180 <__c.2384>:
 180:	2a 72 45 26 00                                      *rE&.

00000185 <__c.2382>:
 185:	2a 66 49 6e 26 00                                   *fIn&.

0000018b <__c.2380>:
 18b:	43 4f 4e 4e 45 43 54 20 4f 4b 00                    CONNECT OK.

00000196 <__c.2378>:
 196:	45 52 52 4f 52 00                                   ERROR.

0000019c <__c.2376>:
 19c:	4f 4b 00 00                                         OK..

000001a0 <__ctors_end>:
 1a0:	11 24       	eor	r1, r1
 1a2:	1f be       	out	0x3f, r1	; 63
 1a4:	cf e5       	ldi	r28, 0x5F	; 95
 1a6:	d4 e0       	ldi	r29, 0x04	; 4
 1a8:	de bf       	out	0x3e, r29	; 62
 1aa:	cd bf       	out	0x3d, r28	; 61

000001ac <__do_copy_data>:
 1ac:	10 e0       	ldi	r17, 0x00	; 0
 1ae:	a0 e6       	ldi	r26, 0x60	; 96
 1b0:	b0 e0       	ldi	r27, 0x00	; 0
 1b2:	e4 e1       	ldi	r30, 0x14	; 20
 1b4:	ff e0       	ldi	r31, 0x0F	; 15
 1b6:	02 c0       	rjmp	.+4      	; 0x1bc <__do_copy_data+0x10>
 1b8:	05 90       	lpm	r0, Z+
 1ba:	0d 92       	st	X+, r0
 1bc:	a2 37       	cpi	r26, 0x72	; 114
 1be:	b1 07       	cpc	r27, r17
 1c0:	d9 f7       	brne	.-10     	; 0x1b8 <__do_copy_data+0xc>

000001c2 <__do_clear_bss>:
 1c2:	22 e0       	ldi	r18, 0x02	; 2
 1c4:	a2 e7       	ldi	r26, 0x72	; 114
 1c6:	b0 e0       	ldi	r27, 0x00	; 0
 1c8:	01 c0       	rjmp	.+2      	; 0x1cc <.do_clear_bss_start>

000001ca <.do_clear_bss_loop>:
 1ca:	1d 92       	st	X+, r1

000001cc <.do_clear_bss_start>:
 1cc:	a4 3b       	cpi	r26, 0xB4	; 180
 1ce:	b2 07       	cpc	r27, r18
 1d0:	e1 f7       	brne	.-8      	; 0x1ca <.do_clear_bss_loop>
 1d2:	f6 d4       	rcall	.+2540   	; 0xbc0 <main>
 1d4:	9d c6       	rjmp	.+3386   	; 0xf10 <_exit>

000001d6 <__bad_interrupt>:
 1d6:	14 cf       	rjmp	.-472    	; 0x0 <__vectors>

000001d8 <register_uart_str_rx_event_callback>:
 1d8:	90 93 75 00 	sts	0x0075, r25
 1dc:	80 93 74 00 	sts	0x0074, r24
 1e0:	08 95       	ret

000001e2 <register_uart_str_rx_event_callback0>:
 1e2:	90 93 73 00 	sts	0x0073, r25
 1e6:	80 93 72 00 	sts	0x0072, r24
 1ea:	08 95       	ret

000001ec <USART_Init>:
 1ec:	90 bd       	out	0x20, r25	; 32
 1ee:	89 b9       	out	0x09, r24	; 9
 1f0:	88 e1       	ldi	r24, 0x18	; 24
 1f2:	8a b9       	out	0x0a, r24	; 10
 1f4:	86 e8       	ldi	r24, 0x86	; 134
 1f6:	80 bd       	out	0x20, r24	; 32
 1f8:	8a b1       	in	r24, 0x0a	; 10
 1fa:	88 69       	ori	r24, 0x98	; 152
 1fc:	8a b9       	out	0x0a, r24	; 10
 1fe:	08 95       	ret

00000200 <uart_putc>:
 200:	2f b7       	in	r18, 0x3f	; 63
 202:	f8 94       	cli
 204:	90 91 79 00 	lds	r25, 0x0079
 208:	9f 5f       	subi	r25, 0xFF	; 255
 20a:	91 70       	andi	r25, 0x01	; 1
 20c:	2f bf       	out	0x3f, r18	; 63
 20e:	20 91 7b 00 	lds	r18, 0x007B
 212:	92 17       	cp	r25, r18
 214:	e1 f3       	breq	.-8      	; 0x20e <uart_putc+0xe>
 216:	e9 2f       	mov	r30, r25
 218:	f0 e0       	ldi	r31, 0x00	; 0
 21a:	e4 58       	subi	r30, 0x84	; 132
 21c:	ff 4f       	sbci	r31, 0xFF	; 255
 21e:	80 83       	st	Z, r24
 220:	90 93 79 00 	sts	0x0079, r25
 224:	55 9a       	sbi	0x0a, 5	; 10
 226:	08 95       	ret

00000228 <uart_puts>:
 228:	cf 93       	push	r28
 22a:	df 93       	push	r29
 22c:	ec 01       	movw	r28, r24
 22e:	89 91       	ld	r24, Y+
 230:	88 23       	and	r24, r24
 232:	11 f0       	breq	.+4      	; 0x238 <uart_puts+0x10>
 234:	e5 df       	rcall	.-54     	; 0x200 <uart_putc>
 236:	fb cf       	rjmp	.-10     	; 0x22e <uart_puts+0x6>
 238:	df 91       	pop	r29
 23a:	cf 91       	pop	r28
 23c:	08 95       	ret

0000023e <uart_puts_P>:
 23e:	cf 93       	push	r28
 240:	df 93       	push	r29
 242:	fc 01       	movw	r30, r24
 244:	84 91       	lpm	r24, Z
 246:	ef 01       	movw	r28, r30
 248:	21 96       	adiw	r28, 0x01	; 1
 24a:	88 23       	and	r24, r24
 24c:	19 f0       	breq	.+6      	; 0x254 <uart_puts_P+0x16>
 24e:	d8 df       	rcall	.-80     	; 0x200 <uart_putc>
 250:	fe 01       	movw	r30, r28
 252:	f8 cf       	rjmp	.-16     	; 0x244 <uart_puts_P+0x6>
 254:	df 91       	pop	r29
 256:	cf 91       	pop	r28
 258:	08 95       	ret

0000025a <uart_putint>:
 25a:	cf 93       	push	r28
 25c:	df 93       	push	r29
 25e:	cd b7       	in	r28, 0x3d	; 61
 260:	de b7       	in	r29, 0x3e	; 62
 262:	61 97       	sbiw	r28, 0x11	; 17
 264:	0f b6       	in	r0, 0x3f	; 63
 266:	f8 94       	cli
 268:	de bf       	out	0x3e, r29	; 62
 26a:	0f be       	out	0x3f, r0	; 63
 26c:	cd bf       	out	0x3d, r28	; 61
 26e:	ab 01       	movw	r20, r22
 270:	be 01       	movw	r22, r28
 272:	6f 5f       	subi	r22, 0xFF	; 255
 274:	7f 4f       	sbci	r23, 0xFF	; 255
 276:	0f d6       	rcall	.+3102   	; 0xe96 <itoa>
 278:	ce 01       	movw	r24, r28
 27a:	01 96       	adiw	r24, 0x01	; 1
 27c:	d5 df       	rcall	.-86     	; 0x228 <uart_puts>
 27e:	61 96       	adiw	r28, 0x11	; 17
 280:	0f b6       	in	r0, 0x3f	; 63
 282:	f8 94       	cli
 284:	de bf       	out	0x3e, r29	; 62
 286:	0f be       	out	0x3f, r0	; 63
 288:	cd bf       	out	0x3d, r28	; 61
 28a:	df 91       	pop	r29
 28c:	cf 91       	pop	r28
 28e:	08 95       	ret

00000290 <__vector_12>:
 290:	1f 92       	push	r1
 292:	0f 92       	push	r0
 294:	0f b6       	in	r0, 0x3f	; 63
 296:	0f 92       	push	r0
 298:	11 24       	eor	r1, r1
 29a:	8f 93       	push	r24
 29c:	9f 93       	push	r25
 29e:	ef 93       	push	r30
 2a0:	ff 93       	push	r31
 2a2:	90 91 79 00 	lds	r25, 0x0079
 2a6:	80 91 7b 00 	lds	r24, 0x007B
 2aa:	98 17       	cp	r25, r24
 2ac:	71 f0       	breq	.+28     	; 0x2ca <__vector_12+0x3a>
 2ae:	80 91 7b 00 	lds	r24, 0x007B
 2b2:	8f 5f       	subi	r24, 0xFF	; 255
 2b4:	81 70       	andi	r24, 0x01	; 1
 2b6:	80 93 7b 00 	sts	0x007B, r24
 2ba:	e0 91 7b 00 	lds	r30, 0x007B
 2be:	f0 e0       	ldi	r31, 0x00	; 0
 2c0:	e4 58       	subi	r30, 0x84	; 132
 2c2:	ff 4f       	sbci	r31, 0xFF	; 255
 2c4:	80 81       	ld	r24, Z
 2c6:	8c b9       	out	0x0c, r24	; 12
 2c8:	01 c0       	rjmp	.+2      	; 0x2cc <__vector_12+0x3c>
 2ca:	55 98       	cbi	0x0a, 5	; 10
 2cc:	ff 91       	pop	r31
 2ce:	ef 91       	pop	r30
 2d0:	9f 91       	pop	r25
 2d2:	8f 91       	pop	r24
 2d4:	0f 90       	pop	r0
 2d6:	0f be       	out	0x3f, r0	; 63
 2d8:	0f 90       	pop	r0
 2da:	1f 90       	pop	r1
 2dc:	18 95       	reti

000002de <uart_getc>:
 2de:	90 91 7e 00 	lds	r25, 0x007E
 2e2:	80 91 7f 00 	lds	r24, 0x007F
 2e6:	98 17       	cp	r25, r24
 2e8:	81 f0       	breq	.+32     	; 0x30a <uart_getc+0x2c>
 2ea:	2f b7       	in	r18, 0x3f	; 63
 2ec:	f8 94       	cli
 2ee:	80 91 7f 00 	lds	r24, 0x007F
 2f2:	8f 5f       	subi	r24, 0xFF	; 255
 2f4:	80 93 7f 00 	sts	0x007F, r24
 2f8:	e0 91 7f 00 	lds	r30, 0x007F
 2fc:	f0 e0       	ldi	r31, 0x00	; 0
 2fe:	e0 58       	subi	r30, 0x80	; 128
 300:	ff 4f       	sbci	r31, 0xFF	; 255
 302:	80 81       	ld	r24, Z
 304:	90 e0       	ldi	r25, 0x00	; 0
 306:	2f bf       	out	0x3f, r18	; 63
 308:	08 95       	ret
 30a:	8f ef       	ldi	r24, 0xFF	; 255
 30c:	9f ef       	ldi	r25, 0xFF	; 255
 30e:	08 95       	ret

00000310 <uart_get_str>:
 310:	0f 93       	push	r16
 312:	1f 93       	push	r17
 314:	cf 93       	push	r28
 316:	df 93       	push	r29
 318:	8c 01       	movw	r16, r24
 31a:	80 91 7a 00 	lds	r24, 0x007A
 31e:	88 23       	and	r24, r24
 320:	91 f0       	breq	.+36     	; 0x346 <uart_get_str+0x36>
 322:	c0 2f       	mov	r28, r16
 324:	d1 2f       	mov	r29, r17
 326:	db df       	rcall	.-74     	; 0x2de <uart_getc>
 328:	18 16       	cp	r1, r24
 32a:	19 06       	cpc	r1, r25
 32c:	1c f4       	brge	.+6      	; 0x334 <uart_get_str+0x24>
 32e:	8d 30       	cpi	r24, 0x0D	; 13
 330:	91 05       	cpc	r25, r1
 332:	39 f4       	brne	.+14     	; 0x342 <uart_get_str+0x32>
 334:	18 82       	st	Y, r1
 336:	20 91 7a 00 	lds	r18, 0x007A
 33a:	21 50       	subi	r18, 0x01	; 1
 33c:	20 93 7a 00 	sts	0x007A, r18
 340:	02 c0       	rjmp	.+4      	; 0x346 <uart_get_str+0x36>
 342:	89 93       	st	Y+, r24
 344:	f0 cf       	rjmp	.-32     	; 0x326 <uart_get_str+0x16>
 346:	c8 01       	movw	r24, r16
 348:	df 91       	pop	r29
 34a:	cf 91       	pop	r28
 34c:	1f 91       	pop	r17
 34e:	0f 91       	pop	r16
 350:	08 95       	ret

00000352 <UART_RX_STR_EVENT>:
 352:	0f 93       	push	r16
 354:	1f 93       	push	r17
 356:	cf 93       	push	r28
 358:	df 93       	push	r29
 35a:	ec 01       	movw	r28, r24
 35c:	80 91 7a 00 	lds	r24, 0x007A
 360:	88 23       	and	r24, r24
 362:	59 f1       	breq	.+86     	; 0x3ba <UART_RX_STR_EVENT+0x68>
 364:	00 91 72 00 	lds	r16, 0x0072
 368:	10 91 73 00 	lds	r17, 0x0073
 36c:	01 15       	cp	r16, r1
 36e:	11 05       	cpc	r17, r1
 370:	31 f4       	brne	.+12     	; 0x37e <UART_RX_STR_EVENT+0x2c>
 372:	80 91 74 00 	lds	r24, 0x0074
 376:	90 91 75 00 	lds	r25, 0x0075
 37a:	89 2b       	or	r24, r25
 37c:	d1 f0       	breq	.+52     	; 0x3b2 <UART_RX_STR_EVENT+0x60>
 37e:	ce 01       	movw	r24, r28
 380:	c7 df       	rcall	.-114    	; 0x310 <uart_get_str>
 382:	88 81       	ld	r24, Y
 384:	88 23       	and	r24, r24
 386:	c9 f0       	breq	.+50     	; 0x3ba <UART_RX_STR_EVENT+0x68>
 388:	01 15       	cp	r16, r1
 38a:	11 05       	cpc	r17, r1
 38c:	61 f4       	brne	.+24     	; 0x3a6 <UART_RX_STR_EVENT+0x54>
 38e:	e0 91 74 00 	lds	r30, 0x0074
 392:	f0 91 75 00 	lds	r31, 0x0075
 396:	30 97       	sbiw	r30, 0x00	; 0
 398:	81 f0       	breq	.+32     	; 0x3ba <UART_RX_STR_EVENT+0x68>
 39a:	ce 01       	movw	r24, r28
 39c:	df 91       	pop	r29
 39e:	cf 91       	pop	r28
 3a0:	1f 91       	pop	r17
 3a2:	0f 91       	pop	r16
 3a4:	09 94       	ijmp
 3a6:	ce 01       	movw	r24, r28
 3a8:	f8 01       	movw	r30, r16
 3aa:	09 95       	icall
 3ac:	88 23       	and	r24, r24
 3ae:	29 f0       	breq	.+10     	; 0x3ba <UART_RX_STR_EVENT+0x68>
 3b0:	ee cf       	rjmp	.-36     	; 0x38e <UART_RX_STR_EVENT+0x3c>
 3b2:	80 91 7f 00 	lds	r24, 0x007F
 3b6:	80 93 7e 00 	sts	0x007E, r24
 3ba:	df 91       	pop	r29
 3bc:	cf 91       	pop	r28
 3be:	1f 91       	pop	r17
 3c0:	0f 91       	pop	r16
 3c2:	08 95       	ret

000003c4 <uart_wait_char>:
 3c4:	cf 93       	push	r28
 3c6:	df 93       	push	r29
 3c8:	c8 ee       	ldi	r28, 0xE8	; 232
 3ca:	d3 e0       	ldi	r29, 0x03	; 3
 3cc:	88 df       	rcall	.-240    	; 0x2de <uart_getc>
 3ce:	97 ff       	sbrs	r25, 7
 3d0:	0c c0       	rjmp	.+24     	; 0x3ea <uart_wait_char+0x26>
 3d2:	21 97       	sbiw	r28, 0x01	; 1
 3d4:	d8 f3       	brcs	.-10     	; 0x3cc <uart_wait_char+0x8>
 3d6:	86 e6       	ldi	r24, 0x66	; 102
 3d8:	9e e0       	ldi	r25, 0x0E	; 14
 3da:	01 97       	sbiw	r24, 0x01	; 1
 3dc:	f1 f7       	brne	.-4      	; 0x3da <uart_wait_char+0x16>
 3de:	00 00       	nop
 3e0:	20 97       	sbiw	r28, 0x00	; 0
 3e2:	a1 f7       	brne	.-24     	; 0x3cc <uart_wait_char+0x8>
 3e4:	80 e0       	ldi	r24, 0x00	; 0
 3e6:	90 e0       	ldi	r25, 0x00	; 0
 3e8:	02 c0       	rjmp	.+4      	; 0x3ee <uart_wait_char+0x2a>
 3ea:	cd 2b       	or	r28, r29
 3ec:	d9 f3       	breq	.-10     	; 0x3e4 <uart_wait_char+0x20>
 3ee:	df 91       	pop	r29
 3f0:	cf 91       	pop	r28
 3f2:	08 95       	ret

000003f4 <__vector_11>:
 3f4:	1f 92       	push	r1
 3f6:	0f 92       	push	r0
 3f8:	0f b6       	in	r0, 0x3f	; 63
 3fa:	0f 92       	push	r0
 3fc:	11 24       	eor	r1, r1
 3fe:	8f 93       	push	r24
 400:	9f 93       	push	r25
 402:	ef 93       	push	r30
 404:	ff 93       	push	r31
 406:	8c b1       	in	r24, 0x0c	; 12
 408:	e0 91 7e 00 	lds	r30, 0x007E
 40c:	ef 5f       	subi	r30, 0xFF	; 255
 40e:	90 91 7f 00 	lds	r25, 0x007F
 412:	e9 13       	cpse	r30, r25
 414:	05 c0       	rjmp	.+10     	; 0x420 <__vector_11+0x2c>
 416:	80 91 7f 00 	lds	r24, 0x007F
 41a:	80 93 7e 00 	sts	0x007E, r24
 41e:	12 c0       	rjmp	.+36     	; 0x444 <__vector_11+0x50>
 420:	88 23       	and	r24, r24
 422:	81 f0       	breq	.+32     	; 0x444 <__vector_11+0x50>
 424:	8d 30       	cpi	r24, 0x0D	; 13
 426:	31 f4       	brne	.+12     	; 0x434 <__vector_11+0x40>
 428:	90 91 7a 00 	lds	r25, 0x007A
 42c:	9f 5f       	subi	r25, 0xFF	; 255
 42e:	90 93 7a 00 	sts	0x007A, r25
 432:	02 c0       	rjmp	.+4      	; 0x438 <__vector_11+0x44>
 434:	8a 30       	cpi	r24, 0x0A	; 10
 436:	31 f0       	breq	.+12     	; 0x444 <__vector_11+0x50>
 438:	e0 93 7e 00 	sts	0x007E, r30
 43c:	f0 e0       	ldi	r31, 0x00	; 0
 43e:	e0 58       	subi	r30, 0x80	; 128
 440:	ff 4f       	sbci	r31, 0xFF	; 255
 442:	80 83       	st	Z, r24
 444:	ff 91       	pop	r31
 446:	ef 91       	pop	r30
 448:	9f 91       	pop	r25
 44a:	8f 91       	pop	r24
 44c:	0f 90       	pop	r0
 44e:	0f be       	out	0x3f, r0	; 63
 450:	0f 90       	pop	r0
 452:	1f 90       	pop	r1
 454:	18 95       	reti

00000456 <send_at>:
 456:	df 92       	push	r13
 458:	ef 92       	push	r14
 45a:	ff 92       	push	r15
 45c:	0f 93       	push	r16
 45e:	1f 93       	push	r17
 460:	cf 93       	push	r28
 462:	df 93       	push	r29
 464:	d8 2e       	mov	r13, r24
 466:	8b 01       	movw	r16, r22
 468:	ea 01       	movw	r28, r20
 46a:	79 01       	movw	r14, r18
 46c:	80 93 93 01 	sts	0x0193, r24
 470:	80 e1       	ldi	r24, 0x10	; 16
 472:	d8 16       	cp	r13, r24
 474:	29 f0       	breq	.+10     	; 0x480 <__stack+0x21>
 476:	e6 e2       	ldi	r30, 0x26	; 38
 478:	f0 e0       	ldi	r31, 0x00	; 0
 47a:	85 91       	lpm	r24, Z+
 47c:	94 91       	lpm	r25, Z
 47e:	df de       	rcall	.-578    	; 0x23e <uart_puts_P>
 480:	e0 91 93 01 	lds	r30, 0x0193
 484:	ee 23       	and	r30, r30
 486:	41 f0       	breq	.+16     	; 0x498 <__stack+0x39>
 488:	f0 e0       	ldi	r31, 0x00	; 0
 48a:	ee 0f       	add	r30, r30
 48c:	ff 1f       	adc	r31, r31
 48e:	ea 5d       	subi	r30, 0xDA	; 218
 490:	ff 4f       	sbci	r31, 0xFF	; 255
 492:	85 91       	lpm	r24, Z+
 494:	94 91       	lpm	r25, Z
 496:	d3 de       	rcall	.-602    	; 0x23e <uart_puts_P>
 498:	01 15       	cp	r16, r1
 49a:	11 05       	cpc	r17, r1
 49c:	11 f0       	breq	.+4      	; 0x4a2 <__stack+0x43>
 49e:	c8 01       	movw	r24, r16
 4a0:	ce de       	rcall	.-612    	; 0x23e <uart_puts_P>
 4a2:	20 97       	sbiw	r28, 0x00	; 0
 4a4:	11 f0       	breq	.+4      	; 0x4aa <__stack+0x4b>
 4a6:	ce 01       	movw	r24, r28
 4a8:	bf de       	rcall	.-642    	; 0x228 <uart_puts>
 4aa:	ca e4       	ldi	r28, 0x4A	; 74
 4ac:	d0 e0       	ldi	r29, 0x00	; 0
 4ae:	fe 01       	movw	r30, r28
 4b0:	85 91       	lpm	r24, Z+
 4b2:	94 91       	lpm	r25, Z
 4b4:	c4 de       	rcall	.-632    	; 0x23e <uart_puts_P>
 4b6:	8c e0       	ldi	r24, 0x0C	; 12
 4b8:	d8 12       	cpse	r13, r24
 4ba:	42 c0       	rjmp	.+132    	; 0x540 <__stack+0xe1>
 4bc:	88 ec       	ldi	r24, 0xC8	; 200
 4be:	90 e0       	ldi	r25, 0x00	; 0
 4c0:	a2 d0       	rcall	.+324    	; 0x606 <mDelay>
 4c2:	e0 e4       	ldi	r30, 0x40	; 64
 4c4:	f0 e0       	ldi	r31, 0x00	; 0
 4c6:	85 91       	lpm	r24, Z+
 4c8:	94 91       	lpm	r25, Z
 4ca:	b9 de       	rcall	.-654    	; 0x23e <uart_puts_P>
 4cc:	02 e4       	ldi	r16, 0x42	; 66
 4ce:	10 e0       	ldi	r17, 0x00	; 0
 4d0:	f8 01       	movw	r30, r16
 4d2:	85 91       	lpm	r24, Z+
 4d4:	94 91       	lpm	r25, Z
 4d6:	b3 de       	rcall	.-666    	; 0x23e <uart_puts_P>
 4d8:	80 91 83 01 	lds	r24, 0x0183
 4dc:	90 91 84 01 	lds	r25, 0x0184
 4e0:	a3 de       	rcall	.-698    	; 0x228 <uart_puts>
 4e2:	f8 01       	movw	r30, r16
 4e4:	85 91       	lpm	r24, Z+
 4e6:	94 91       	lpm	r25, Z
 4e8:	aa de       	rcall	.-684    	; 0x23e <uart_puts_P>
 4ea:	80 91 90 01 	lds	r24, 0x0190
 4ee:	90 91 91 01 	lds	r25, 0x0191
 4f2:	9a de       	rcall	.-716    	; 0x228 <uart_puts>
 4f4:	f8 01       	movw	r30, r16
 4f6:	85 91       	lpm	r24, Z+
 4f8:	94 91       	lpm	r25, Z
 4fa:	a1 de       	rcall	.-702    	; 0x23e <uart_puts_P>
 4fc:	80 91 85 01 	lds	r24, 0x0185
 500:	7f de       	rcall	.-770    	; 0x200 <uart_putc>
 502:	f8 01       	movw	r30, r16
 504:	85 91       	lpm	r24, Z+
 506:	94 91       	lpm	r25, Z
 508:	9a de       	rcall	.-716    	; 0x23e <uart_puts_P>
 50a:	80 91 80 01 	lds	r24, 0x0180
 50e:	78 de       	rcall	.-784    	; 0x200 <uart_putc>
 510:	e4 e4       	ldi	r30, 0x44	; 68
 512:	f0 e0       	ldi	r31, 0x00	; 0
 514:	85 91       	lpm	r24, Z+
 516:	94 91       	lpm	r25, Z
 518:	92 de       	rcall	.-732    	; 0x23e <uart_puts_P>
 51a:	fe 01       	movw	r30, r28
 51c:	85 91       	lpm	r24, Z+
 51e:	94 91       	lpm	r25, Z
 520:	8e de       	rcall	.-740    	; 0x23e <uart_puts_P>
 522:	e6 e4       	ldi	r30, 0x46	; 70
 524:	f0 e0       	ldi	r31, 0x00	; 0
 526:	85 91       	lpm	r24, Z+
 528:	94 91       	lpm	r25, Z
 52a:	89 de       	rcall	.-750    	; 0x23e <uart_puts_P>
 52c:	fe 01       	movw	r30, r28
 52e:	85 91       	lpm	r24, Z+
 530:	94 91       	lpm	r25, Z
 532:	85 de       	rcall	.-758    	; 0x23e <uart_puts_P>
 534:	fe 01       	movw	r30, r28
 536:	85 91       	lpm	r24, Z+
 538:	94 91       	lpm	r25, Z
 53a:	81 de       	rcall	.-766    	; 0x23e <uart_puts_P>
 53c:	8a e1       	ldi	r24, 0x1A	; 26
 53e:	60 de       	rcall	.-832    	; 0x200 <uart_putc>
 540:	c7 01       	movw	r24, r14
 542:	64 e6       	ldi	r22, 0x64	; 100
 544:	70 e0       	ldi	r23, 0x00	; 0
 546:	56 d4       	rcall	.+2220   	; 0xdf4 <__udivmodhi4>
 548:	70 93 96 01 	sts	0x0196, r23
 54c:	60 93 95 01 	sts	0x0195, r22
 550:	82 e0       	ldi	r24, 0x02	; 2
 552:	80 93 94 01 	sts	0x0194, r24
 556:	80 e0       	ldi	r24, 0x00	; 0
 558:	ec d3       	rcall	.+2008   	; 0xd32 <timer_enable>
 55a:	80 e0       	ldi	r24, 0x00	; 0
 55c:	df 91       	pop	r29
 55e:	cf 91       	pop	r28
 560:	1f 91       	pop	r17
 562:	0f 91       	pop	r16
 564:	ff 90       	pop	r15
 566:	ef 90       	pop	r14
 568:	df 90       	pop	r13
 56a:	08 95       	ret

0000056c <wait_for_site>:
 56c:	64 e6       	ldi	r22, 0x64	; 100
 56e:	70 e0       	ldi	r23, 0x00	; 0
 570:	41 d4       	rcall	.+2178   	; 0xdf4 <__udivmodhi4>
 572:	70 93 96 01 	sts	0x0196, r23
 576:	60 93 95 01 	sts	0x0195, r22
 57a:	82 e0       	ldi	r24, 0x02	; 2
 57c:	80 93 94 01 	sts	0x0194, r24
 580:	80 e0       	ldi	r24, 0x00	; 0
 582:	d7 d3       	rcall	.+1966   	; 0xd32 <timer_enable>
 584:	80 e0       	ldi	r24, 0x00	; 0
 586:	08 95       	ret

00000588 <wait_for_site_process_end>:
 588:	80 91 9e 01 	lds	r24, 0x019E
 58c:	81 11       	cpse	r24, r1
 58e:	12 c0       	rjmp	.+36     	; 0x5b4 <wait_for_site_process_end+0x2c>
 590:	80 e3       	ldi	r24, 0x30	; 48
 592:	80 93 80 01 	sts	0x0180, r24
 596:	82 99       	sbic	0x10, 2	; 16
 598:	02 c0       	rjmp	.+4      	; 0x59e <wait_for_site_process_end+0x16>
 59a:	83 9b       	sbis	0x10, 3	; 16
 59c:	03 c0       	rjmp	.+6      	; 0x5a4 <wait_for_site_process_end+0x1c>
 59e:	81 e3       	ldi	r24, 0x31	; 49
 5a0:	80 93 85 01 	sts	0x0185, r24
 5a4:	82 99       	sbic	0x10, 2	; 16
 5a6:	0b c0       	rjmp	.+22     	; 0x5be <wait_for_site_process_end+0x36>
 5a8:	83 99       	sbic	0x10, 3	; 16
 5aa:	09 c0       	rjmp	.+18     	; 0x5be <wait_for_site_process_end+0x36>
 5ac:	80 e3       	ldi	r24, 0x30	; 48
 5ae:	80 93 85 01 	sts	0x0185, r24
 5b2:	05 c0       	rjmp	.+10     	; 0x5be <wait_for_site_process_end+0x36>
 5b4:	81 30       	cpi	r24, 0x01	; 1
 5b6:	19 f4       	brne	.+6      	; 0x5be <wait_for_site_process_end+0x36>
 5b8:	81 e3       	ldi	r24, 0x31	; 49
 5ba:	80 93 80 01 	sts	0x0180, r24
 5be:	80 91 94 01 	lds	r24, 0x0194
 5c2:	18 16       	cp	r1, r24
 5c4:	1c f4       	brge	.+6      	; 0x5cc <wait_for_site_process_end+0x44>
 5c6:	80 e0       	ldi	r24, 0x00	; 0
 5c8:	16 d0       	rcall	.+44     	; 0x5f6 <MAIN_EVENTS>
 5ca:	f9 cf       	rjmp	.-14     	; 0x5be <wait_for_site_process_end+0x36>
 5cc:	08 95       	ret

000005ce <wait_for_at_process_end>:
 5ce:	80 91 94 01 	lds	r24, 0x0194
 5d2:	18 16       	cp	r1, r24
 5d4:	1c f4       	brge	.+6      	; 0x5dc <wait_for_at_process_end+0xe>
 5d6:	80 e0       	ldi	r24, 0x00	; 0
 5d8:	0e d0       	rcall	.+28     	; 0x5f6 <MAIN_EVENTS>
 5da:	f9 cf       	rjmp	.-14     	; 0x5ce <wait_for_at_process_end>
 5dc:	08 95       	ret

000005de <adc_init>:
 5de:	3e 9a       	sbi	0x07, 6	; 7
 5e0:	86 b1       	in	r24, 0x06	; 6
 5e2:	87 60       	ori	r24, 0x07	; 7
 5e4:	86 b9       	out	0x06, r24	; 6
 5e6:	37 9a       	sbi	0x06, 7	; 6
 5e8:	08 95       	ret

000005ea <adc_read>:
 5ea:	36 9a       	sbi	0x06, 6	; 6
 5ec:	36 99       	sbic	0x06, 6	; 6
 5ee:	fe cf       	rjmp	.-4      	; 0x5ec <adc_read+0x2>
 5f0:	84 b1       	in	r24, 0x04	; 4
 5f2:	95 b1       	in	r25, 0x05	; 5
 5f4:	08 95       	ret

000005f6 <MAIN_EVENTS>:
 5f6:	cf 93       	push	r28
 5f8:	c8 2f       	mov	r28, r24
 5fa:	8f e9       	ldi	r24, 0x9F	; 159
 5fc:	91 e0       	ldi	r25, 0x01	; 1
 5fe:	a9 de       	rcall	.-686    	; 0x352 <UART_RX_STR_EVENT>
 600:	8c 2f       	mov	r24, r28
 602:	cf 91       	pop	r28
 604:	cb c3       	rjmp	.+1942   	; 0xd9c <TIMERS_EVENT>

00000606 <mDelay>:
 606:	00 97       	sbiw	r24, 0x00	; 0
 608:	39 f0       	breq	.+14     	; 0x618 <mDelay+0x12>
 60a:	e6 e6       	ldi	r30, 0x66	; 102
 60c:	fe e0       	ldi	r31, 0x0E	; 14
 60e:	31 97       	sbiw	r30, 0x01	; 1
 610:	f1 f7       	brne	.-4      	; 0x60e <mDelay+0x8>
 612:	00 00       	nop
 614:	01 97       	sbiw	r24, 0x01	; 1
 616:	f7 cf       	rjmp	.-18     	; 0x606 <mDelay>
 618:	08 95       	ret

0000061a <parse_rs232>:
 61a:	1f 93       	push	r17
 61c:	cf 93       	push	r28
 61e:	df 93       	push	r29
 620:	ec 01       	movw	r28, r24
 622:	80 91 94 01 	lds	r24, 0x0194
 626:	10 91 9c 01 	lds	r17, 0x019C
 62a:	88 23       	and	r24, r24
 62c:	a1 f0       	breq	.+40     	; 0x656 <parse_rs232+0x3c>
 62e:	13 30       	cpi	r17, 0x03	; 3
 630:	39 f1       	breq	.+78     	; 0x680 <parse_rs232+0x66>
 632:	6c e9       	ldi	r22, 0x9C	; 156
 634:	71 e0       	ldi	r23, 0x01	; 1
 636:	ce 01       	movw	r24, r28
 638:	f1 d3       	rcall	.+2018   	; 0xe1c <strcmp_P>
 63a:	89 2b       	or	r24, r25
 63c:	19 f4       	brne	.+6      	; 0x644 <parse_rs232+0x2a>
 63e:	10 92 94 01 	sts	0x0194, r1
 642:	09 c0       	rjmp	.+18     	; 0x656 <parse_rs232+0x3c>
 644:	66 e9       	ldi	r22, 0x96	; 150
 646:	71 e0       	ldi	r23, 0x01	; 1
 648:	ce 01       	movw	r24, r28
 64a:	e8 d3       	rcall	.+2000   	; 0xe1c <strcmp_P>
 64c:	89 2b       	or	r24, r25
 64e:	19 f4       	brne	.+6      	; 0x656 <parse_rs232+0x3c>
 650:	8f ef       	ldi	r24, 0xFF	; 255
 652:	80 93 94 01 	sts	0x0194, r24
 656:	11 11       	cpse	r17, r1
 658:	13 c0       	rjmp	.+38     	; 0x680 <parse_rs232+0x66>
 65a:	60 e6       	ldi	r22, 0x60	; 96
 65c:	70 e0       	ldi	r23, 0x00	; 0
 65e:	ce 01       	movw	r24, r28
 660:	00 d4       	rcall	.+2048   	; 0xe62 <strstr>
 662:	89 2b       	or	r24, r25
 664:	69 f0       	breq	.+26     	; 0x680 <parse_rs232+0x66>
 666:	f8 94       	cli
 668:	8f e9       	ldi	r24, 0x9F	; 159
 66a:	91 e0       	ldi	r25, 0x01	; 1
 66c:	90 93 84 01 	sts	0x0184, r25
 670:	80 93 83 01 	sts	0x0183, r24
 674:	78 94       	sei
 676:	10 92 94 01 	sts	0x0194, r1
 67a:	81 e0       	ldi	r24, 0x01	; 1
 67c:	80 93 9c 01 	sts	0x019C, r24
 680:	80 91 9c 01 	lds	r24, 0x019C
 684:	83 30       	cpi	r24, 0x03	; 3
 686:	41 f4       	brne	.+16     	; 0x698 <parse_rs232+0x7e>
 688:	6b e8       	ldi	r22, 0x8B	; 139
 68a:	71 e0       	ldi	r23, 0x01	; 1
 68c:	ce 01       	movw	r24, r28
 68e:	c6 d3       	rcall	.+1932   	; 0xe1c <strcmp_P>
 690:	89 2b       	or	r24, r25
 692:	11 f4       	brne	.+4      	; 0x698 <parse_rs232+0x7e>
 694:	10 92 94 01 	sts	0x0194, r1
 698:	65 e8       	ldi	r22, 0x85	; 133
 69a:	71 e0       	ldi	r23, 0x01	; 1
 69c:	ce 01       	movw	r24, r28
 69e:	c7 d3       	rcall	.+1934   	; 0xe2e <strstr_P>
 6a0:	89 2b       	or	r24, r25
 6a2:	59 f0       	breq	.+22     	; 0x6ba <parse_rs232+0xa0>
 6a4:	10 92 94 01 	sts	0x0194, r1
 6a8:	c3 98       	cbi	0x18, 3	; 24
 6aa:	c1 98       	cbi	0x18, 1	; 24
 6ac:	10 92 9e 01 	sts	0x019E, r1
 6b0:	81 e0       	ldi	r24, 0x01	; 1
 6b2:	80 93 9c 01 	sts	0x019C, r24
 6b6:	cc e6       	ldi	r28, 0x6C	; 108
 6b8:	d0 e0       	ldi	r29, 0x00	; 0
 6ba:	60 e8       	ldi	r22, 0x80	; 128
 6bc:	71 e0       	ldi	r23, 0x01	; 1
 6be:	ce 01       	movw	r24, r28
 6c0:	b6 d3       	rcall	.+1900   	; 0xe2e <strstr_P>
 6c2:	89 2b       	or	r24, r25
 6c4:	59 f0       	breq	.+22     	; 0x6dc <parse_rs232+0xc2>
 6c6:	10 92 94 01 	sts	0x0194, r1
 6ca:	c3 98       	cbi	0x18, 3	; 24
 6cc:	c1 98       	cbi	0x18, 1	; 24
 6ce:	10 92 9e 01 	sts	0x019E, r1
 6d2:	81 e0       	ldi	r24, 0x01	; 1
 6d4:	80 93 9c 01 	sts	0x019C, r24
 6d8:	cc e6       	ldi	r28, 0x6C	; 108
 6da:	d0 e0       	ldi	r29, 0x00	; 0
 6dc:	6b e7       	ldi	r22, 0x7B	; 123
 6de:	71 e0       	ldi	r23, 0x01	; 1
 6e0:	ce 01       	movw	r24, r28
 6e2:	a5 d3       	rcall	.+1866   	; 0xe2e <strstr_P>
 6e4:	89 2b       	or	r24, r25
 6e6:	59 f0       	breq	.+22     	; 0x6fe <parse_rs232+0xe4>
 6e8:	10 92 94 01 	sts	0x0194, r1
 6ec:	c3 98       	cbi	0x18, 3	; 24
 6ee:	c1 98       	cbi	0x18, 1	; 24
 6f0:	81 e0       	ldi	r24, 0x01	; 1
 6f2:	80 93 9e 01 	sts	0x019E, r24
 6f6:	80 93 9c 01 	sts	0x019C, r24
 6fa:	cc e6       	ldi	r28, 0x6C	; 108
 6fc:	d0 e0       	ldi	r29, 0x00	; 0
 6fe:	66 e7       	ldi	r22, 0x76	; 118
 700:	71 e0       	ldi	r23, 0x01	; 1
 702:	ce 01       	movw	r24, r28
 704:	94 d3       	rcall	.+1832   	; 0xe2e <strstr_P>
 706:	89 2b       	or	r24, r25
 708:	59 f0       	breq	.+22     	; 0x720 <parse_rs232+0x106>
 70a:	10 92 94 01 	sts	0x0194, r1
 70e:	c3 98       	cbi	0x18, 3	; 24
 710:	c1 98       	cbi	0x18, 1	; 24
 712:	10 92 9e 01 	sts	0x019E, r1
 716:	81 e0       	ldi	r24, 0x01	; 1
 718:	80 93 9c 01 	sts	0x019C, r24
 71c:	cc e6       	ldi	r28, 0x6C	; 108
 71e:	d0 e0       	ldi	r29, 0x00	; 0
 720:	61 e7       	ldi	r22, 0x71	; 113
 722:	71 e0       	ldi	r23, 0x01	; 1
 724:	ce 01       	movw	r24, r28
 726:	83 d3       	rcall	.+1798   	; 0xe2e <strstr_P>
 728:	89 2b       	or	r24, r25
 72a:	59 f0       	breq	.+22     	; 0x742 <parse_rs232+0x128>
 72c:	10 92 94 01 	sts	0x0194, r1
 730:	c3 9a       	sbi	0x18, 3	; 24
 732:	c1 9a       	sbi	0x18, 1	; 24
 734:	81 e0       	ldi	r24, 0x01	; 1
 736:	80 93 9e 01 	sts	0x019E, r24
 73a:	80 93 9c 01 	sts	0x019C, r24
 73e:	cc e6       	ldi	r28, 0x6C	; 108
 740:	d0 e0       	ldi	r29, 0x00	; 0
 742:	6b e6       	ldi	r22, 0x6B	; 107
 744:	71 e0       	ldi	r23, 0x01	; 1
 746:	ce 01       	movw	r24, r28
 748:	72 d3       	rcall	.+1764   	; 0xe2e <strstr_P>
 74a:	89 2b       	or	r24, r25
 74c:	59 f0       	breq	.+22     	; 0x764 <parse_rs232+0x14a>
 74e:	10 92 94 01 	sts	0x0194, r1
 752:	c3 9a       	sbi	0x18, 3	; 24
 754:	c1 9a       	sbi	0x18, 1	; 24
 756:	81 e0       	ldi	r24, 0x01	; 1
 758:	80 93 9e 01 	sts	0x019E, r24
 75c:	80 93 9c 01 	sts	0x019C, r24
 760:	cc e6       	ldi	r28, 0x6C	; 108
 762:	d0 e0       	ldi	r29, 0x00	; 0
 764:	66 e6       	ldi	r22, 0x66	; 102
 766:	71 e0       	ldi	r23, 0x01	; 1
 768:	ce 01       	movw	r24, r28
 76a:	61 d3       	rcall	.+1730   	; 0xe2e <strstr_P>
 76c:	89 2b       	or	r24, r25
 76e:	61 f0       	breq	.+24     	; 0x788 <parse_rs232+0x16e>
 770:	10 92 94 01 	sts	0x0194, r1
 774:	c5 9a       	sbi	0x18, 5	; 24
 776:	84 ef       	ldi	r24, 0xF4	; 244
 778:	91 e0       	ldi	r25, 0x01	; 1
 77a:	45 df       	rcall	.-374    	; 0x606 <mDelay>
 77c:	c5 98       	cbi	0x18, 5	; 24
 77e:	81 e0       	ldi	r24, 0x01	; 1
 780:	80 93 9c 01 	sts	0x019C, r24
 784:	cc e6       	ldi	r28, 0x6C	; 108
 786:	d0 e0       	ldi	r29, 0x00	; 0
 788:	60 e6       	ldi	r22, 0x60	; 96
 78a:	71 e0       	ldi	r23, 0x01	; 1
 78c:	ce 01       	movw	r24, r28
 78e:	4f d3       	rcall	.+1694   	; 0xe2e <strstr_P>
 790:	89 2b       	or	r24, r25
 792:	41 f0       	breq	.+16     	; 0x7a4 <parse_rs232+0x18a>
 794:	10 92 94 01 	sts	0x0194, r1
 798:	c2 9a       	sbi	0x18, 2	; 24
 79a:	81 e0       	ldi	r24, 0x01	; 1
 79c:	80 93 9c 01 	sts	0x019C, r24
 7a0:	cc e6       	ldi	r28, 0x6C	; 108
 7a2:	d0 e0       	ldi	r29, 0x00	; 0
 7a4:	69 e5       	ldi	r22, 0x59	; 89
 7a6:	71 e0       	ldi	r23, 0x01	; 1
 7a8:	ce 01       	movw	r24, r28
 7aa:	41 d3       	rcall	.+1666   	; 0xe2e <strstr_P>
 7ac:	89 2b       	or	r24, r25
 7ae:	41 f0       	breq	.+16     	; 0x7c0 <parse_rs232+0x1a6>
 7b0:	10 92 94 01 	sts	0x0194, r1
 7b4:	c2 98       	cbi	0x18, 2	; 24
 7b6:	81 e0       	ldi	r24, 0x01	; 1
 7b8:	80 93 9c 01 	sts	0x019C, r24
 7bc:	cc e6       	ldi	r28, 0x6C	; 108
 7be:	d0 e0       	ldi	r29, 0x00	; 0
 7c0:	62 e5       	ldi	r22, 0x52	; 82
 7c2:	71 e0       	ldi	r23, 0x01	; 1
 7c4:	ce 01       	movw	r24, r28
 7c6:	33 d3       	rcall	.+1638   	; 0xe2e <strstr_P>
 7c8:	89 2b       	or	r24, r25
 7ca:	41 f0       	breq	.+16     	; 0x7dc <parse_rs232+0x1c2>
 7cc:	10 92 94 01 	sts	0x0194, r1
 7d0:	c4 9a       	sbi	0x18, 4	; 24
 7d2:	81 e0       	ldi	r24, 0x01	; 1
 7d4:	80 93 9c 01 	sts	0x019C, r24
 7d8:	cc e6       	ldi	r28, 0x6C	; 108
 7da:	d0 e0       	ldi	r29, 0x00	; 0
 7dc:	6b e4       	ldi	r22, 0x4B	; 75
 7de:	71 e0       	ldi	r23, 0x01	; 1
 7e0:	ce 01       	movw	r24, r28
 7e2:	25 d3       	rcall	.+1610   	; 0xe2e <strstr_P>
 7e4:	89 2b       	or	r24, r25
 7e6:	31 f0       	breq	.+12     	; 0x7f4 <parse_rs232+0x1da>
 7e8:	10 92 94 01 	sts	0x0194, r1
 7ec:	c4 98       	cbi	0x18, 4	; 24
 7ee:	81 e0       	ldi	r24, 0x01	; 1
 7f0:	80 93 9c 01 	sts	0x019C, r24
 7f4:	df 91       	pop	r29
 7f6:	cf 91       	pop	r28
 7f8:	1f 91       	pop	r17
 7fa:	08 95       	ret

000007fc <tmr_at_process>:
 7fc:	20 91 94 01 	lds	r18, 0x0194
 800:	12 16       	cp	r1, r18
 802:	bc f4       	brge	.+46     	; 0x832 <tmr_at_process+0x36>
 804:	21 30       	cpi	r18, 0x01	; 1
 806:	c1 f4       	brne	.+48     	; 0x838 <tmr_at_process+0x3c>
 808:	20 91 97 01 	lds	r18, 0x0197
 80c:	30 91 98 01 	lds	r19, 0x0198
 810:	a9 01       	movw	r20, r18
 812:	4f 5f       	subi	r20, 0xFF	; 255
 814:	5f 4f       	sbci	r21, 0xFF	; 255
 816:	50 93 98 01 	sts	0x0198, r21
 81a:	40 93 97 01 	sts	0x0197, r20
 81e:	40 91 95 01 	lds	r20, 0x0195
 822:	50 91 96 01 	lds	r21, 0x0196
 826:	42 17       	cp	r20, r18
 828:	53 07       	cpc	r21, r19
 82a:	68 f4       	brcc	.+26     	; 0x846 <tmr_at_process+0x4a>
 82c:	2e ef       	ldi	r18, 0xFE	; 254
 82e:	20 93 94 01 	sts	0x0194, r18
 832:	fc 01       	movw	r30, r24
 834:	12 82       	std	Z+2, r1	; 0x02
 836:	08 95       	ret
 838:	21 50       	subi	r18, 0x01	; 1
 83a:	20 93 94 01 	sts	0x0194, r18
 83e:	10 92 98 01 	sts	0x0198, r1
 842:	10 92 97 01 	sts	0x0197, r1
 846:	08 95       	ret

00000848 <gsm_soft_start>:
 848:	81 e0       	ldi	r24, 0x01	; 1
 84a:	80 93 9c 01 	sts	0x019C, r24
 84e:	10 92 9d 01 	sts	0x019D, r1
 852:	88 ee       	ldi	r24, 0xE8	; 232
 854:	93 e0       	ldi	r25, 0x03	; 3
 856:	d7 de       	rcall	.-594    	; 0x606 <mDelay>
 858:	c0 98       	cbi	0x18, 0	; 24
 85a:	10 92 78 00 	sts	0x0078, r1
 85e:	88 ef       	ldi	r24, 0xF8	; 248
 860:	9a e2       	ldi	r25, 0x2A	; 42
 862:	d1 de       	rcall	.-606    	; 0x606 <mDelay>
 864:	80 91 78 00 	lds	r24, 0x0078
 868:	8f 5f       	subi	r24, 0xFF	; 255
 86a:	80 93 78 00 	sts	0x0078, r24
 86e:	28 ec       	ldi	r18, 0xC8	; 200
 870:	30 e0       	ldi	r19, 0x00	; 0
 872:	40 e0       	ldi	r20, 0x00	; 0
 874:	50 e0       	ldi	r21, 0x00	; 0
 876:	60 e0       	ldi	r22, 0x00	; 0
 878:	70 e0       	ldi	r23, 0x00	; 0
 87a:	81 e0       	ldi	r24, 0x01	; 1
 87c:	ec dd       	rcall	.-1064   	; 0x456 <send_at>
 87e:	a7 de       	rcall	.-690    	; 0x5ce <wait_for_at_process_end>
 880:	80 93 9b 01 	sts	0x019B, r24
 884:	87 ff       	sbrs	r24, 7
 886:	08 c0       	rjmp	.+16     	; 0x898 <gsm_soft_start+0x50>
 888:	80 91 78 00 	lds	r24, 0x0078
 88c:	8b 30       	cpi	r24, 0x0B	; 11
 88e:	50 f3       	brcs	.-44     	; 0x864 <gsm_soft_start+0x1c>
 890:	86 e0       	ldi	r24, 0x06	; 6
 892:	80 93 9c 01 	sts	0x019C, r24
 896:	02 c0       	rjmp	.+4      	; 0x89c <gsm_soft_start+0x54>
 898:	81 11       	cpse	r24, r1
 89a:	e4 cf       	rjmp	.-56     	; 0x864 <gsm_soft_start+0x1c>
 89c:	10 92 78 00 	sts	0x0078, r1
 8a0:	80 91 9c 01 	lds	r24, 0x019C
 8a4:	86 30       	cpi	r24, 0x06	; 6
 8a6:	09 f4       	brne	.+2      	; 0x8aa <gsm_soft_start+0x62>
 8a8:	a3 c0       	rjmp	.+326    	; 0x9f0 <gsm_soft_start+0x1a8>
 8aa:	80 91 78 00 	lds	r24, 0x0078
 8ae:	8f 5f       	subi	r24, 0xFF	; 255
 8b0:	80 93 78 00 	sts	0x0078, r24
 8b4:	28 ec       	ldi	r18, 0xC8	; 200
 8b6:	30 e0       	ldi	r19, 0x00	; 0
 8b8:	40 e0       	ldi	r20, 0x00	; 0
 8ba:	50 e0       	ldi	r21, 0x00	; 0
 8bc:	60 e0       	ldi	r22, 0x00	; 0
 8be:	70 e0       	ldi	r23, 0x00	; 0
 8c0:	82 e0       	ldi	r24, 0x02	; 2
 8c2:	c9 dd       	rcall	.-1134   	; 0x456 <send_at>
 8c4:	84 de       	rcall	.-760    	; 0x5ce <wait_for_at_process_end>
 8c6:	80 93 9b 01 	sts	0x019B, r24
 8ca:	87 ff       	sbrs	r24, 7
 8cc:	08 c0       	rjmp	.+16     	; 0x8de <gsm_soft_start+0x96>
 8ce:	80 91 78 00 	lds	r24, 0x0078
 8d2:	86 30       	cpi	r24, 0x06	; 6
 8d4:	50 f3       	brcs	.-44     	; 0x8aa <gsm_soft_start+0x62>
 8d6:	86 e0       	ldi	r24, 0x06	; 6
 8d8:	80 93 9c 01 	sts	0x019C, r24
 8dc:	02 c0       	rjmp	.+4      	; 0x8e2 <gsm_soft_start+0x9a>
 8de:	81 11       	cpse	r24, r1
 8e0:	e4 cf       	rjmp	.-56     	; 0x8aa <gsm_soft_start+0x62>
 8e2:	10 92 78 00 	sts	0x0078, r1
 8e6:	80 91 9c 01 	lds	r24, 0x019C
 8ea:	86 30       	cpi	r24, 0x06	; 6
 8ec:	09 f4       	brne	.+2      	; 0x8f0 <gsm_soft_start+0xa8>
 8ee:	80 c0       	rjmp	.+256    	; 0x9f0 <gsm_soft_start+0x1a8>
 8f0:	80 91 78 00 	lds	r24, 0x0078
 8f4:	8f 5f       	subi	r24, 0xFF	; 255
 8f6:	80 93 78 00 	sts	0x0078, r24
 8fa:	28 ec       	ldi	r18, 0xC8	; 200
 8fc:	30 e0       	ldi	r19, 0x00	; 0
 8fe:	40 e0       	ldi	r20, 0x00	; 0
 900:	50 e0       	ldi	r21, 0x00	; 0
 902:	60 e0       	ldi	r22, 0x00	; 0
 904:	70 e0       	ldi	r23, 0x00	; 0
 906:	89 e0       	ldi	r24, 0x09	; 9
 908:	a6 dd       	rcall	.-1204   	; 0x456 <send_at>
 90a:	61 de       	rcall	.-830    	; 0x5ce <wait_for_at_process_end>
 90c:	80 93 9b 01 	sts	0x019B, r24
 910:	87 ff       	sbrs	r24, 7
 912:	08 c0       	rjmp	.+16     	; 0x924 <gsm_soft_start+0xdc>
 914:	80 91 78 00 	lds	r24, 0x0078
 918:	83 30       	cpi	r24, 0x03	; 3
 91a:	50 f3       	brcs	.-44     	; 0x8f0 <gsm_soft_start+0xa8>
 91c:	86 e0       	ldi	r24, 0x06	; 6
 91e:	80 93 9c 01 	sts	0x019C, r24
 922:	02 c0       	rjmp	.+4      	; 0x928 <gsm_soft_start+0xe0>
 924:	81 11       	cpse	r24, r1
 926:	e4 cf       	rjmp	.-56     	; 0x8f0 <gsm_soft_start+0xa8>
 928:	10 92 78 00 	sts	0x0078, r1
 92c:	80 91 9c 01 	lds	r24, 0x019C
 930:	86 30       	cpi	r24, 0x06	; 6
 932:	09 f4       	brne	.+2      	; 0x936 <gsm_soft_start+0xee>
 934:	5d c0       	rjmp	.+186    	; 0x9f0 <gsm_soft_start+0x1a8>
 936:	80 91 78 00 	lds	r24, 0x0078
 93a:	8f 5f       	subi	r24, 0xFF	; 255
 93c:	80 93 78 00 	sts	0x0078, r24
 940:	20 e7       	ldi	r18, 0x70	; 112
 942:	37 e1       	ldi	r19, 0x17	; 23
 944:	40 e0       	ldi	r20, 0x00	; 0
 946:	50 e0       	ldi	r21, 0x00	; 0
 948:	60 e0       	ldi	r22, 0x00	; 0
 94a:	70 e0       	ldi	r23, 0x00	; 0
 94c:	88 e0       	ldi	r24, 0x08	; 8
 94e:	83 dd       	rcall	.-1274   	; 0x456 <send_at>
 950:	3e de       	rcall	.-900    	; 0x5ce <wait_for_at_process_end>
 952:	80 93 9b 01 	sts	0x019B, r24
 956:	87 ff       	sbrs	r24, 7
 958:	08 c0       	rjmp	.+16     	; 0x96a <gsm_soft_start+0x122>
 95a:	80 91 78 00 	lds	r24, 0x0078
 95e:	83 30       	cpi	r24, 0x03	; 3
 960:	50 f3       	brcs	.-44     	; 0x936 <gsm_soft_start+0xee>
 962:	86 e0       	ldi	r24, 0x06	; 6
 964:	80 93 9c 01 	sts	0x019C, r24
 968:	02 c0       	rjmp	.+4      	; 0x96e <gsm_soft_start+0x126>
 96a:	81 11       	cpse	r24, r1
 96c:	e4 cf       	rjmp	.-56     	; 0x936 <gsm_soft_start+0xee>
 96e:	10 92 78 00 	sts	0x0078, r1
 972:	80 91 9c 01 	lds	r24, 0x019C
 976:	86 30       	cpi	r24, 0x06	; 6
 978:	09 f4       	brne	.+2      	; 0x97c <gsm_soft_start+0x134>
 97a:	3a c0       	rjmp	.+116    	; 0x9f0 <gsm_soft_start+0x1a8>
 97c:	e6 e2       	ldi	r30, 0x26	; 38
 97e:	f0 e0       	ldi	r31, 0x00	; 0
 980:	85 91       	lpm	r24, Z+
 982:	94 91       	lpm	r25, Z
 984:	5c dc       	rcall	.-1864   	; 0x23e <uart_puts_P>
 986:	ec e2       	ldi	r30, 0x2C	; 44
 988:	f0 e0       	ldi	r31, 0x00	; 0
 98a:	85 91       	lpm	r24, Z+
 98c:	94 91       	lpm	r25, Z
 98e:	57 dc       	rcall	.-1874   	; 0x23e <uart_puts_P>
 990:	ea e4       	ldi	r30, 0x4A	; 74
 992:	f0 e0       	ldi	r31, 0x00	; 0
 994:	85 91       	lpm	r24, Z+
 996:	94 91       	lpm	r25, Z
 998:	52 dc       	rcall	.-1884   	; 0x23e <uart_puts_P>
 99a:	88 ec       	ldi	r24, 0xC8	; 200
 99c:	90 e0       	ldi	r25, 0x00	; 0
 99e:	33 de       	rcall	.-922    	; 0x606 <mDelay>
 9a0:	83 e0       	ldi	r24, 0x03	; 3
 9a2:	80 93 9c 01 	sts	0x019C, r24
 9a6:	80 91 78 00 	lds	r24, 0x0078
 9aa:	8f 5f       	subi	r24, 0xFF	; 255
 9ac:	80 93 78 00 	sts	0x0078, r24
 9b0:	28 eb       	ldi	r18, 0xB8	; 184
 9b2:	3b e0       	ldi	r19, 0x0B	; 11
 9b4:	40 e0       	ldi	r20, 0x00	; 0
 9b6:	50 e0       	ldi	r21, 0x00	; 0
 9b8:	60 e0       	ldi	r22, 0x00	; 0
 9ba:	70 e0       	ldi	r23, 0x00	; 0
 9bc:	8b e0       	ldi	r24, 0x0B	; 11
 9be:	4b dd       	rcall	.-1386   	; 0x456 <send_at>
 9c0:	06 de       	rcall	.-1012   	; 0x5ce <wait_for_at_process_end>
 9c2:	80 93 9b 01 	sts	0x019B, r24
 9c6:	87 ff       	sbrs	r24, 7
 9c8:	08 c0       	rjmp	.+16     	; 0x9da <gsm_soft_start+0x192>
 9ca:	80 91 78 00 	lds	r24, 0x0078
 9ce:	84 30       	cpi	r24, 0x04	; 4
 9d0:	50 f3       	brcs	.-44     	; 0x9a6 <gsm_soft_start+0x15e>
 9d2:	86 e0       	ldi	r24, 0x06	; 6
 9d4:	80 93 9c 01 	sts	0x019C, r24
 9d8:	02 c0       	rjmp	.+4      	; 0x9de <gsm_soft_start+0x196>
 9da:	81 11       	cpse	r24, r1
 9dc:	e4 cf       	rjmp	.-56     	; 0x9a6 <gsm_soft_start+0x15e>
 9de:	10 92 78 00 	sts	0x0078, r1
 9e2:	80 91 9c 01 	lds	r24, 0x019C
 9e6:	86 30       	cpi	r24, 0x06	; 6
 9e8:	19 f0       	breq	.+6      	; 0x9f0 <gsm_soft_start+0x1a8>
 9ea:	81 e0       	ldi	r24, 0x01	; 1
 9ec:	80 93 9c 01 	sts	0x019C, r24
 9f0:	08 95       	ret

000009f2 <POST>:
 9f2:	cf 93       	push	r28
 9f4:	df 93       	push	r29
 9f6:	80 91 9c 01 	lds	r24, 0x019C
 9fa:	81 30       	cpi	r24, 0x01	; 1
 9fc:	09 f0       	breq	.+2      	; 0xa00 <POST+0xe>
 9fe:	a9 c0       	rjmp	.+338    	; 0xb52 <POST+0x160>
 a00:	10 92 78 00 	sts	0x0078, r1
 a04:	80 91 9d 01 	lds	r24, 0x019D
 a08:	88 23       	and	r24, r24
 a0a:	91 f0       	breq	.+36     	; 0xa30 <POST+0x3e>
 a0c:	83 e0       	ldi	r24, 0x03	; 3
 a0e:	80 93 9c 01 	sts	0x019C, r24
 a12:	80 91 78 00 	lds	r24, 0x0078
 a16:	8f 5f       	subi	r24, 0xFF	; 255
 a18:	80 93 78 00 	sts	0x0078, r24
 a1c:	88 ee       	ldi	r24, 0xE8	; 232
 a1e:	93 e0       	ldi	r25, 0x03	; 3
 a20:	a5 dd       	rcall	.-1206   	; 0x56c <wait_for_site>
 a22:	b2 dd       	rcall	.-1180   	; 0x588 <wait_for_site_process_end>
 a24:	80 93 9b 01 	sts	0x019B, r24
 a28:	18 16       	cp	r1, r24
 a2a:	9c f3       	brlt	.-26     	; 0xa12 <POST+0x20>
 a2c:	10 92 78 00 	sts	0x0078, r1
 a30:	83 e0       	ldi	r24, 0x03	; 3
 a32:	80 93 9c 01 	sts	0x019C, r24
 a36:	80 91 78 00 	lds	r24, 0x0078
 a3a:	8f 5f       	subi	r24, 0xFF	; 255
 a3c:	80 93 78 00 	sts	0x0078, r24
 a40:	28 eb       	ldi	r18, 0xB8	; 184
 a42:	3b e0       	ldi	r19, 0x0B	; 11
 a44:	40 e0       	ldi	r20, 0x00	; 0
 a46:	50 e0       	ldi	r21, 0x00	; 0
 a48:	60 e0       	ldi	r22, 0x00	; 0
 a4a:	70 e0       	ldi	r23, 0x00	; 0
 a4c:	8c e0       	ldi	r24, 0x0C	; 12
 a4e:	03 dd       	rcall	.-1530   	; 0x456 <send_at>
 a50:	be dd       	rcall	.-1156   	; 0x5ce <wait_for_at_process_end>
 a52:	80 93 9b 01 	sts	0x019B, r24
 a56:	87 ff       	sbrs	r24, 7
 a58:	28 c0       	rjmp	.+80     	; 0xaaa <POST+0xb8>
 a5a:	80 91 78 00 	lds	r24, 0x0078
 a5e:	83 30       	cpi	r24, 0x03	; 3
 a60:	50 f3       	brcs	.-44     	; 0xa36 <POST+0x44>
 a62:	ca e4       	ldi	r28, 0x4A	; 74
 a64:	d0 e0       	ldi	r29, 0x00	; 0
 a66:	fe 01       	movw	r30, r28
 a68:	85 91       	lpm	r24, Z+
 a6a:	94 91       	lpm	r25, Z
 a6c:	e8 db       	rcall	.-2096   	; 0x23e <uart_puts_P>
 a6e:	fe 01       	movw	r30, r28
 a70:	85 91       	lpm	r24, Z+
 a72:	94 91       	lpm	r25, Z
 a74:	e4 db       	rcall	.-2104   	; 0x23e <uart_puts_P>
 a76:	8a e1       	ldi	r24, 0x1A	; 26
 a78:	c3 db       	rcall	.-2170   	; 0x200 <uart_putc>
 a7a:	8c eb       	ldi	r24, 0xBC	; 188
 a7c:	92 e0       	ldi	r25, 0x02	; 2
 a7e:	c3 dd       	rcall	.-1146   	; 0x606 <mDelay>
 a80:	e6 e2       	ldi	r30, 0x26	; 38
 a82:	f0 e0       	ldi	r31, 0x00	; 0
 a84:	85 91       	lpm	r24, Z+
 a86:	94 91       	lpm	r25, Z
 a88:	da db       	rcall	.-2124   	; 0x23e <uart_puts_P>
 a8a:	ec e4       	ldi	r30, 0x4C	; 76
 a8c:	f0 e0       	ldi	r31, 0x00	; 0
 a8e:	85 91       	lpm	r24, Z+
 a90:	94 91       	lpm	r25, Z
 a92:	d5 db       	rcall	.-2134   	; 0x23e <uart_puts_P>
 a94:	fe 01       	movw	r30, r28
 a96:	85 91       	lpm	r24, Z+
 a98:	94 91       	lpm	r25, Z
 a9a:	d1 db       	rcall	.-2142   	; 0x23e <uart_puts_P>
 a9c:	88 ec       	ldi	r24, 0xC8	; 200
 a9e:	90 e0       	ldi	r25, 0x00	; 0
 aa0:	b2 dd       	rcall	.-1180   	; 0x606 <mDelay>
 aa2:	84 e0       	ldi	r24, 0x04	; 4
 aa4:	80 93 9c 01 	sts	0x019C, r24
 aa8:	02 c0       	rjmp	.+4      	; 0xaae <POST+0xbc>
 aaa:	81 11       	cpse	r24, r1
 aac:	c4 cf       	rjmp	.-120    	; 0xa36 <POST+0x44>
 aae:	10 92 78 00 	sts	0x0078, r1
 ab2:	80 91 9c 01 	lds	r24, 0x019C
 ab6:	8d 7f       	andi	r24, 0xFD	; 253
 ab8:	84 30       	cpi	r24, 0x04	; 4
 aba:	09 f4       	brne	.+2      	; 0xabe <POST+0xcc>
 abc:	7e c0       	rjmp	.+252    	; 0xbba <POST+0x1c8>
 abe:	89 e6       	ldi	r24, 0x69	; 105
 ac0:	90 e0       	ldi	r25, 0x00	; 0
 ac2:	90 93 84 01 	sts	0x0184, r25
 ac6:	80 93 83 01 	sts	0x0183, r24
 aca:	80 91 9d 01 	lds	r24, 0x019D
 ace:	8f 5f       	subi	r24, 0xFF	; 255
 ad0:	80 93 9d 01 	sts	0x019D, r24
 ad4:	91 e0       	ldi	r25, 0x01	; 1
 ad6:	90 93 9c 01 	sts	0x019C, r25
 ada:	8a 30       	cpi	r24, 0x0A	; 10
 adc:	29 f4       	brne	.+10     	; 0xae8 <POST+0xf6>
 ade:	85 dd       	rcall	.-1270   	; 0x5ea <adc_read>
 ae0:	90 93 9a 01 	sts	0x019A, r25
 ae4:	80 93 99 01 	sts	0x0199, r24
 ae8:	80 91 9d 01 	lds	r24, 0x019D
 aec:	8f 30       	cpi	r24, 0x0F	; 15
 aee:	51 f4       	brne	.+20     	; 0xb04 <POST+0x112>
 af0:	60 91 90 01 	lds	r22, 0x0190
 af4:	70 91 91 01 	lds	r23, 0x0191
 af8:	4a e0       	ldi	r20, 0x0A	; 10
 afa:	80 91 99 01 	lds	r24, 0x0199
 afe:	90 91 9a 01 	lds	r25, 0x019A
 b02:	d3 d1       	rcall	.+934    	; 0xeaa <__itoa_ncheck>
 b04:	80 91 9d 01 	lds	r24, 0x019D
 b08:	84 31       	cpi	r24, 0x14	; 20
 b0a:	19 f5       	brne	.+70     	; 0xb52 <POST+0x160>
 b0c:	10 92 9c 01 	sts	0x019C, r1
 b10:	10 92 9d 01 	sts	0x019D, r1
 b14:	88 ec       	ldi	r24, 0xC8	; 200
 b16:	90 e0       	ldi	r25, 0x00	; 0
 b18:	76 dd       	rcall	.-1300   	; 0x606 <mDelay>
 b1a:	80 91 78 00 	lds	r24, 0x0078
 b1e:	8f 5f       	subi	r24, 0xFF	; 255
 b20:	80 93 78 00 	sts	0x0078, r24
 b24:	28 ee       	ldi	r18, 0xE8	; 232
 b26:	33 e0       	ldi	r19, 0x03	; 3
 b28:	40 e0       	ldi	r20, 0x00	; 0
 b2a:	50 e0       	ldi	r21, 0x00	; 0
 b2c:	60 e0       	ldi	r22, 0x00	; 0
 b2e:	70 e0       	ldi	r23, 0x00	; 0
 b30:	81 e1       	ldi	r24, 0x11	; 17
 b32:	91 dc       	rcall	.-1758   	; 0x456 <send_at>
 b34:	4c dd       	rcall	.-1384   	; 0x5ce <wait_for_at_process_end>
 b36:	80 93 9b 01 	sts	0x019B, r24
 b3a:	87 ff       	sbrs	r24, 7
 b3c:	08 c0       	rjmp	.+16     	; 0xb4e <POST+0x15c>
 b3e:	80 91 78 00 	lds	r24, 0x0078
 b42:	82 30       	cpi	r24, 0x02	; 2
 b44:	50 f3       	brcs	.-44     	; 0xb1a <POST+0x128>
 b46:	81 e0       	ldi	r24, 0x01	; 1
 b48:	80 93 9c 01 	sts	0x019C, r24
 b4c:	02 c0       	rjmp	.+4      	; 0xb52 <POST+0x160>
 b4e:	81 11       	cpse	r24, r1
 b50:	e4 cf       	rjmp	.-56     	; 0xb1a <POST+0x128>
 b52:	80 91 9c 01 	lds	r24, 0x019C
 b56:	84 30       	cpi	r24, 0x04	; 4
 b58:	81 f5       	brne	.+96     	; 0xbba <POST+0x1c8>
 b5a:	10 92 78 00 	sts	0x0078, r1
 b5e:	83 e0       	ldi	r24, 0x03	; 3
 b60:	80 93 9c 01 	sts	0x019C, r24
 b64:	c9 e6       	ldi	r28, 0x69	; 105
 b66:	d0 e0       	ldi	r29, 0x00	; 0
 b68:	80 91 78 00 	lds	r24, 0x0078
 b6c:	8f 5f       	subi	r24, 0xFF	; 255
 b6e:	80 93 78 00 	sts	0x0078, r24
 b72:	20 e7       	ldi	r18, 0x70	; 112
 b74:	37 e1       	ldi	r19, 0x17	; 23
 b76:	40 e0       	ldi	r20, 0x00	; 0
 b78:	50 e0       	ldi	r21, 0x00	; 0
 b7a:	60 e0       	ldi	r22, 0x00	; 0
 b7c:	70 e0       	ldi	r23, 0x00	; 0
 b7e:	8b e0       	ldi	r24, 0x0B	; 11
 b80:	6a dc       	rcall	.-1836   	; 0x456 <send_at>
 b82:	25 dd       	rcall	.-1462   	; 0x5ce <wait_for_at_process_end>
 b84:	80 93 9b 01 	sts	0x019B, r24
 b88:	d0 93 84 01 	sts	0x0184, r29
 b8c:	c0 93 83 01 	sts	0x0183, r28
 b90:	87 ff       	sbrs	r24, 7
 b92:	08 c0       	rjmp	.+16     	; 0xba4 <POST+0x1b2>
 b94:	80 91 78 00 	lds	r24, 0x0078
 b98:	82 30       	cpi	r24, 0x02	; 2
 b9a:	30 f3       	brcs	.-52     	; 0xb68 <POST+0x176>
 b9c:	86 e0       	ldi	r24, 0x06	; 6
 b9e:	80 93 9c 01 	sts	0x019C, r24
 ba2:	02 c0       	rjmp	.+4      	; 0xba8 <POST+0x1b6>
 ba4:	81 11       	cpse	r24, r1
 ba6:	e0 cf       	rjmp	.-64     	; 0xb68 <POST+0x176>
 ba8:	80 91 9c 01 	lds	r24, 0x019C
 bac:	86 30       	cpi	r24, 0x06	; 6
 bae:	19 f0       	breq	.+6      	; 0xbb6 <POST+0x1c4>
 bb0:	81 e0       	ldi	r24, 0x01	; 1
 bb2:	80 93 9c 01 	sts	0x019C, r24
 bb6:	10 92 78 00 	sts	0x0078, r1
 bba:	df 91       	pop	r29
 bbc:	cf 91       	pop	r28
 bbe:	08 95       	ret

00000bc0 <main>:
 bc0:	c3 98       	cbi	0x18, 3	; 24
 bc2:	c1 98       	cbi	0x18, 1	; 24
 bc4:	c5 98       	cbi	0x18, 5	; 24
 bc6:	c2 98       	cbi	0x18, 2	; 24
 bc8:	82 b3       	in	r24, 0x12	; 18
 bca:	8c 60       	ori	r24, 0x0C	; 12
 bcc:	82 bb       	out	0x12, r24	; 18
 bce:	80 e3       	ldi	r24, 0x30	; 48
 bd0:	b8 2e       	mov	r11, r24
 bd2:	aa 24       	eor	r10, r10
 bd4:	a3 94       	inc	r10
 bd6:	c9 e6       	ldi	r28, 0x69	; 105
 bd8:	d0 e0       	ldi	r29, 0x00	; 0
 bda:	00 e7       	ldi	r16, 0x70	; 112
 bdc:	10 e0       	ldi	r17, 0x00	; 0
 bde:	98 ee       	ldi	r25, 0xE8	; 232
 be0:	e9 2e       	mov	r14, r25
 be2:	93 e0       	ldi	r25, 0x03	; 3
 be4:	f9 2e       	mov	r15, r25
 be6:	2d e6       	ldi	r18, 0x6D	; 109
 be8:	c2 2e       	mov	r12, r18
 bea:	20 e0       	ldi	r18, 0x00	; 0
 bec:	d2 2e       	mov	r13, r18
 bee:	87 b3       	in	r24, 0x17	; 23
 bf0:	8f 63       	ori	r24, 0x3F	; 63
 bf2:	87 bb       	out	0x17, r24	; 23
 bf4:	c0 9a       	sbi	0x18, 0	; 24
 bf6:	b0 92 85 01 	sts	0x0185, r11
 bfa:	b0 92 80 01 	sts	0x0180, r11
 bfe:	a0 92 9e 01 	sts	0x019E, r10
 c02:	d0 93 84 01 	sts	0x0184, r29
 c06:	c0 93 83 01 	sts	0x0183, r28
 c0a:	10 93 8d 01 	sts	0x018D, r17
 c0e:	00 93 8c 01 	sts	0x018C, r16
 c12:	f0 92 9a 01 	sts	0x019A, r15
 c16:	e0 92 99 01 	sts	0x0199, r14
 c1a:	d0 92 91 01 	sts	0x0191, r13
 c1e:	c0 92 90 01 	sts	0x0190, r12
 c22:	3a d0       	rcall	.+116    	; 0xc98 <soft_timers_init>
 c24:	dc dc       	rcall	.-1608   	; 0x5de <adc_init>
 c26:	2e ef       	ldi	r18, 0xFE	; 254
 c28:	33 e0       	ldi	r19, 0x03	; 3
 c2a:	40 e0       	ldi	r20, 0x00	; 0
 c2c:	64 e6       	ldi	r22, 0x64	; 100
 c2e:	70 e0       	ldi	r23, 0x00	; 0
 c30:	80 e0       	ldi	r24, 0x00	; 0
 c32:	6d d0       	rcall	.+218    	; 0xd0e <timer_init>
 c34:	78 94       	sei
 c36:	8f e5       	ldi	r24, 0x5F	; 95
 c38:	90 e0       	ldi	r25, 0x00	; 0
 c3a:	d8 da       	rcall	.-2640   	; 0x1ec <USART_Init>
 c3c:	8d e0       	ldi	r24, 0x0D	; 13
 c3e:	93 e0       	ldi	r25, 0x03	; 3
 c40:	cb da       	rcall	.-2666   	; 0x1d8 <register_uart_str_rx_event_callback>
 c42:	02 de       	rcall	.-1020   	; 0x848 <gsm_soft_start>
 c44:	80 91 9c 01 	lds	r24, 0x019C
 c48:	86 30       	cpi	r24, 0x06	; 6
 c4a:	89 f2       	breq	.-94     	; 0xbee <main+0x2e>
 c4c:	8f e9       	ldi	r24, 0x9F	; 159
 c4e:	91 e0       	ldi	r25, 0x01	; 1
 c50:	80 db       	rcall	.-2304   	; 0x352 <UART_RX_STR_EVENT>
 c52:	cf de       	rcall	.-610    	; 0x9f2 <POST>
 c54:	8f ef       	ldi	r24, 0xFF	; 255
 c56:	a2 d0       	rcall	.+324    	; 0xd9c <TIMERS_EVENT>
 c58:	f5 cf       	rjmp	.-22     	; 0xc44 <main+0x84>

00000c5a <timers_process>:
 c5a:	cf 93       	push	r28
 c5c:	df 93       	push	r29
 c5e:	ec 01       	movw	r28, r24
 c60:	88 81       	ld	r24, Y
 c62:	99 81       	ldd	r25, Y+1	; 0x01
 c64:	89 2b       	or	r24, r25
 c66:	a9 f4       	brne	.+42     	; 0xc92 <timers_process+0x38>
 c68:	ed 81       	ldd	r30, Y+5	; 0x05
 c6a:	fe 81       	ldd	r31, Y+6	; 0x06
 c6c:	30 97       	sbiw	r30, 0x00	; 0
 c6e:	11 f0       	breq	.+4      	; 0xc74 <timers_process+0x1a>
 c70:	ce 01       	movw	r24, r28
 c72:	09 95       	icall
 c74:	8b 81       	ldd	r24, Y+3	; 0x03
 c76:	9c 81       	ldd	r25, Y+4	; 0x04
 c78:	0a 97       	sbiw	r24, 0x0a	; 10
 c7a:	20 f4       	brcc	.+8      	; 0xc84 <timers_process+0x2a>
 c7c:	8a e0       	ldi	r24, 0x0A	; 10
 c7e:	90 e0       	ldi	r25, 0x00	; 0
 c80:	9c 83       	std	Y+4, r25	; 0x04
 c82:	8b 83       	std	Y+3, r24	; 0x03
 c84:	8b 81       	ldd	r24, Y+3	; 0x03
 c86:	9c 81       	ldd	r25, Y+4	; 0x04
 c88:	6a e0       	ldi	r22, 0x0A	; 10
 c8a:	70 e0       	ldi	r23, 0x00	; 0
 c8c:	b3 d0       	rcall	.+358    	; 0xdf4 <__udivmodhi4>
 c8e:	79 83       	std	Y+1, r23	; 0x01
 c90:	68 83       	st	Y, r22
 c92:	df 91       	pop	r29
 c94:	cf 91       	pop	r28
 c96:	08 95       	ret

00000c98 <soft_timers_init>:
 c98:	85 b5       	in	r24, 0x25	; 37
 c9a:	88 60       	ori	r24, 0x08	; 8
 c9c:	85 bd       	out	0x25, r24	; 37
 c9e:	85 b5       	in	r24, 0x25	; 37
 ca0:	87 60       	ori	r24, 0x07	; 7
 ca2:	85 bd       	out	0x25, r24	; 37
 ca4:	80 e9       	ldi	r24, 0x90	; 144
 ca6:	83 bd       	out	0x23, r24	; 35
 ca8:	89 b7       	in	r24, 0x39	; 57
 caa:	80 68       	ori	r24, 0x80	; 128
 cac:	89 bf       	out	0x39, r24	; 57
 cae:	08 95       	ret

00000cb0 <__vector_3>:
 cb0:	1f 92       	push	r1
 cb2:	0f 92       	push	r0
 cb4:	0f b6       	in	r0, 0x3f	; 63
 cb6:	0f 92       	push	r0
 cb8:	11 24       	eor	r1, r1
 cba:	2f 93       	push	r18
 cbc:	3f 93       	push	r19
 cbe:	4f 93       	push	r20
 cc0:	8f 93       	push	r24
 cc2:	9f 93       	push	r25
 cc4:	ef 93       	push	r30
 cc6:	ff 93       	push	r31
 cc8:	80 e0       	ldi	r24, 0x00	; 0
 cca:	90 e0       	ldi	r25, 0x00	; 0
 ccc:	47 e0       	ldi	r20, 0x07	; 7
 cce:	48 9f       	mul	r20, r24
 cd0:	f0 01       	movw	r30, r0
 cd2:	49 9f       	mul	r20, r25
 cd4:	f0 0d       	add	r31, r0
 cd6:	11 24       	eor	r1, r1
 cd8:	e1 56       	subi	r30, 0x61	; 97
 cda:	fd 4f       	sbci	r31, 0xFD	; 253
 cdc:	20 81       	ld	r18, Z
 cde:	31 81       	ldd	r19, Z+1	; 0x01
 ce0:	21 15       	cp	r18, r1
 ce2:	31 05       	cpc	r19, r1
 ce4:	21 f0       	breq	.+8      	; 0xcee <__vector_3+0x3e>
 ce6:	21 50       	subi	r18, 0x01	; 1
 ce8:	31 09       	sbc	r19, r1
 cea:	31 83       	std	Z+1, r19	; 0x01
 cec:	20 83       	st	Z, r18
 cee:	01 96       	adiw	r24, 0x01	; 1
 cf0:	83 30       	cpi	r24, 0x03	; 3
 cf2:	91 05       	cpc	r25, r1
 cf4:	61 f7       	brne	.-40     	; 0xcce <__vector_3+0x1e>
 cf6:	ff 91       	pop	r31
 cf8:	ef 91       	pop	r30
 cfa:	9f 91       	pop	r25
 cfc:	8f 91       	pop	r24
 cfe:	4f 91       	pop	r20
 d00:	3f 91       	pop	r19
 d02:	2f 91       	pop	r18
 d04:	0f 90       	pop	r0
 d06:	0f be       	out	0x3f, r0	; 63
 d08:	0f 90       	pop	r0
 d0a:	1f 90       	pop	r1
 d0c:	18 95       	reti

00000d0e <timer_init>:
 d0e:	97 e0       	ldi	r25, 0x07	; 7
 d10:	89 9f       	mul	r24, r25
 d12:	f0 01       	movw	r30, r0
 d14:	11 24       	eor	r1, r1
 d16:	e1 56       	subi	r30, 0x61	; 97
 d18:	fd 4f       	sbci	r31, 0xFD	; 253
 d1a:	74 83       	std	Z+4, r23	; 0x04
 d1c:	63 83       	std	Z+3, r22	; 0x03
 d1e:	36 83       	std	Z+6, r19	; 0x06
 d20:	25 83       	std	Z+5, r18	; 0x05
 d22:	cb 01       	movw	r24, r22
 d24:	6a e0       	ldi	r22, 0x0A	; 10
 d26:	70 e0       	ldi	r23, 0x00	; 0
 d28:	65 d0       	rcall	.+202    	; 0xdf4 <__udivmodhi4>
 d2a:	71 83       	std	Z+1, r23	; 0x01
 d2c:	60 83       	st	Z, r22
 d2e:	42 83       	std	Z+2, r20	; 0x02
 d30:	08 95       	ret

00000d32 <timer_enable>:
 d32:	2f b7       	in	r18, 0x3f	; 63
 d34:	f8 94       	cli
 d36:	97 e0       	ldi	r25, 0x07	; 7
 d38:	89 9f       	mul	r24, r25
 d3a:	f0 01       	movw	r30, r0
 d3c:	11 24       	eor	r1, r1
 d3e:	e1 56       	subi	r30, 0x61	; 97
 d40:	fd 4f       	sbci	r31, 0xFD	; 253
 d42:	83 81       	ldd	r24, Z+3	; 0x03
 d44:	94 81       	ldd	r25, Z+4	; 0x04
 d46:	6a e0       	ldi	r22, 0x0A	; 10
 d48:	70 e0       	ldi	r23, 0x00	; 0
 d4a:	54 d0       	rcall	.+168    	; 0xdf4 <__udivmodhi4>
 d4c:	71 83       	std	Z+1, r23	; 0x01
 d4e:	60 83       	st	Z, r22
 d50:	81 e0       	ldi	r24, 0x01	; 1
 d52:	82 83       	std	Z+2, r24	; 0x02
 d54:	2f bf       	out	0x3f, r18	; 63
 d56:	08 95       	ret

00000d58 <timer_isenabled>:
 d58:	97 e0       	ldi	r25, 0x07	; 7
 d5a:	89 9f       	mul	r24, r25
 d5c:	f0 01       	movw	r30, r0
 d5e:	11 24       	eor	r1, r1
 d60:	e1 56       	subi	r30, 0x61	; 97
 d62:	fd 4f       	sbci	r31, 0xFD	; 253
 d64:	82 81       	ldd	r24, Z+2	; 0x02
 d66:	08 95       	ret

00000d68 <timer_disable>:
 d68:	97 e0       	ldi	r25, 0x07	; 7
 d6a:	89 9f       	mul	r24, r25
 d6c:	f0 01       	movw	r30, r0
 d6e:	11 24       	eor	r1, r1
 d70:	e1 56       	subi	r30, 0x61	; 97
 d72:	fd 4f       	sbci	r31, 0xFD	; 253
 d74:	12 82       	std	Z+2, r1	; 0x02
 d76:	08 95       	ret

00000d78 <timer_interval>:
 d78:	2f b7       	in	r18, 0x3f	; 63
 d7a:	f8 94       	cli
 d7c:	97 e0       	ldi	r25, 0x07	; 7
 d7e:	89 9f       	mul	r24, r25
 d80:	f0 01       	movw	r30, r0
 d82:	11 24       	eor	r1, r1
 d84:	e1 56       	subi	r30, 0x61	; 97
 d86:	fd 4f       	sbci	r31, 0xFD	; 253
 d88:	74 83       	std	Z+4, r23	; 0x04
 d8a:	63 83       	std	Z+3, r22	; 0x03
 d8c:	cb 01       	movw	r24, r22
 d8e:	6a e0       	ldi	r22, 0x0A	; 10
 d90:	70 e0       	ldi	r23, 0x00	; 0
 d92:	30 d0       	rcall	.+96     	; 0xdf4 <__udivmodhi4>
 d94:	71 83       	std	Z+1, r23	; 0x01
 d96:	60 83       	st	Z, r22
 d98:	2f bf       	out	0x3f, r18	; 63
 d9a:	08 95       	ret

00000d9c <TIMERS_EVENT>:
 d9c:	cf 93       	push	r28
 d9e:	df 93       	push	r29
 da0:	c8 2f       	mov	r28, r24
 da2:	87 ff       	sbrs	r24, 7
 da4:	0e c0       	rjmp	.+28     	; 0xdc2 <TIMERS_EVENT+0x26>
 da6:	c1 ea       	ldi	r28, 0xA1	; 161
 da8:	d2 e0       	ldi	r29, 0x02	; 2
 daa:	88 81       	ld	r24, Y
 dac:	88 23       	and	r24, r24
 dae:	19 f0       	breq	.+6      	; 0xdb6 <TIMERS_EVENT+0x1a>
 db0:	ce 01       	movw	r24, r28
 db2:	02 97       	sbiw	r24, 0x02	; 2
 db4:	52 df       	rcall	.-348    	; 0xc5a <timers_process>
 db6:	27 96       	adiw	r28, 0x07	; 7
 db8:	22 e0       	ldi	r18, 0x02	; 2
 dba:	c6 3b       	cpi	r28, 0xB6	; 182
 dbc:	d2 07       	cpc	r29, r18
 dbe:	a9 f7       	brne	.-22     	; 0xdaa <TIMERS_EVENT+0xe>
 dc0:	16 c0       	rjmp	.+44     	; 0xdee <TIMERS_EVENT+0x52>
 dc2:	80 91 a1 02 	lds	r24, 0x02A1
 dc6:	88 23       	and	r24, r24
 dc8:	19 f0       	breq	.+6      	; 0xdd0 <TIMERS_EVENT+0x34>
 dca:	8f e9       	ldi	r24, 0x9F	; 159
 dcc:	92 e0       	ldi	r25, 0x02	; 2
 dce:	45 df       	rcall	.-374    	; 0xc5a <timers_process>
 dd0:	cc 23       	and	r28, r28
 dd2:	69 f0       	breq	.+26     	; 0xdee <TIMERS_EVENT+0x52>
 dd4:	e7 e0       	ldi	r30, 0x07	; 7
 dd6:	ce 02       	muls	r28, r30
 dd8:	c0 01       	movw	r24, r0
 dda:	11 24       	eor	r1, r1
 ddc:	81 56       	subi	r24, 0x61	; 97
 dde:	9d 4f       	sbci	r25, 0xFD	; 253
 de0:	fc 01       	movw	r30, r24
 de2:	22 81       	ldd	r18, Z+2	; 0x02
 de4:	22 23       	and	r18, r18
 de6:	19 f0       	breq	.+6      	; 0xdee <TIMERS_EVENT+0x52>
 de8:	df 91       	pop	r29
 dea:	cf 91       	pop	r28
 dec:	36 cf       	rjmp	.-404    	; 0xc5a <timers_process>
 dee:	df 91       	pop	r29
 df0:	cf 91       	pop	r28
 df2:	08 95       	ret

00000df4 <__udivmodhi4>:
 df4:	aa 1b       	sub	r26, r26
 df6:	bb 1b       	sub	r27, r27
 df8:	51 e1       	ldi	r21, 0x11	; 17
 dfa:	07 c0       	rjmp	.+14     	; 0xe0a <__udivmodhi4_ep>

00000dfc <__udivmodhi4_loop>:
 dfc:	aa 1f       	adc	r26, r26
 dfe:	bb 1f       	adc	r27, r27
 e00:	a6 17       	cp	r26, r22
 e02:	b7 07       	cpc	r27, r23
 e04:	10 f0       	brcs	.+4      	; 0xe0a <__udivmodhi4_ep>
 e06:	a6 1b       	sub	r26, r22
 e08:	b7 0b       	sbc	r27, r23

00000e0a <__udivmodhi4_ep>:
 e0a:	88 1f       	adc	r24, r24
 e0c:	99 1f       	adc	r25, r25
 e0e:	5a 95       	dec	r21
 e10:	a9 f7       	brne	.-22     	; 0xdfc <__udivmodhi4_loop>
 e12:	80 95       	com	r24
 e14:	90 95       	com	r25
 e16:	bc 01       	movw	r22, r24
 e18:	cd 01       	movw	r24, r26
 e1a:	08 95       	ret

00000e1c <strcmp_P>:
 e1c:	fb 01       	movw	r30, r22
 e1e:	dc 01       	movw	r26, r24
 e20:	8d 91       	ld	r24, X+
 e22:	05 90       	lpm	r0, Z+
 e24:	80 19       	sub	r24, r0
 e26:	01 10       	cpse	r0, r1
 e28:	d9 f3       	breq	.-10     	; 0xe20 <strcmp_P+0x4>
 e2a:	99 0b       	sbc	r25, r25
 e2c:	08 95       	ret

00000e2e <strstr_P>:
 e2e:	fb 01       	movw	r30, r22
 e30:	55 91       	lpm	r21, Z+
 e32:	55 23       	and	r21, r21
 e34:	a9 f0       	breq	.+42     	; 0xe60 <strstr_P+0x32>
 e36:	bf 01       	movw	r22, r30
 e38:	dc 01       	movw	r26, r24
 e3a:	4d 91       	ld	r20, X+
 e3c:	45 17       	cp	r20, r21
 e3e:	41 11       	cpse	r20, r1
 e40:	e1 f7       	brne	.-8      	; 0xe3a <strstr_P+0xc>
 e42:	59 f4       	brne	.+22     	; 0xe5a <strstr_P+0x2c>
 e44:	cd 01       	movw	r24, r26
 e46:	05 90       	lpm	r0, Z+
 e48:	00 20       	and	r0, r0
 e4a:	49 f0       	breq	.+18     	; 0xe5e <strstr_P+0x30>
 e4c:	4d 91       	ld	r20, X+
 e4e:	40 15       	cp	r20, r0
 e50:	41 11       	cpse	r20, r1
 e52:	c9 f3       	breq	.-14     	; 0xe46 <strstr_P+0x18>
 e54:	fb 01       	movw	r30, r22
 e56:	41 11       	cpse	r20, r1
 e58:	ef cf       	rjmp	.-34     	; 0xe38 <strstr_P+0xa>
 e5a:	81 e0       	ldi	r24, 0x01	; 1
 e5c:	90 e0       	ldi	r25, 0x00	; 0
 e5e:	01 97       	sbiw	r24, 0x01	; 1
 e60:	08 95       	ret

00000e62 <strstr>:
 e62:	fb 01       	movw	r30, r22
 e64:	51 91       	ld	r21, Z+
 e66:	55 23       	and	r21, r21
 e68:	a9 f0       	breq	.+42     	; 0xe94 <strstr+0x32>
 e6a:	bf 01       	movw	r22, r30
 e6c:	dc 01       	movw	r26, r24
 e6e:	4d 91       	ld	r20, X+
 e70:	45 17       	cp	r20, r21
 e72:	41 11       	cpse	r20, r1
 e74:	e1 f7       	brne	.-8      	; 0xe6e <strstr+0xc>
 e76:	59 f4       	brne	.+22     	; 0xe8e <strstr+0x2c>
 e78:	cd 01       	movw	r24, r26
 e7a:	01 90       	ld	r0, Z+
 e7c:	00 20       	and	r0, r0
 e7e:	49 f0       	breq	.+18     	; 0xe92 <strstr+0x30>
 e80:	4d 91       	ld	r20, X+
 e82:	40 15       	cp	r20, r0
 e84:	41 11       	cpse	r20, r1
 e86:	c9 f3       	breq	.-14     	; 0xe7a <strstr+0x18>
 e88:	fb 01       	movw	r30, r22
 e8a:	41 11       	cpse	r20, r1
 e8c:	ef cf       	rjmp	.-34     	; 0xe6c <strstr+0xa>
 e8e:	81 e0       	ldi	r24, 0x01	; 1
 e90:	90 e0       	ldi	r25, 0x00	; 0
 e92:	01 97       	sbiw	r24, 0x01	; 1
 e94:	08 95       	ret

00000e96 <itoa>:
 e96:	45 32       	cpi	r20, 0x25	; 37
 e98:	51 05       	cpc	r21, r1
 e9a:	18 f4       	brcc	.+6      	; 0xea2 <itoa+0xc>
 e9c:	42 30       	cpi	r20, 0x02	; 2
 e9e:	08 f0       	brcs	.+2      	; 0xea2 <itoa+0xc>
 ea0:	04 c0       	rjmp	.+8      	; 0xeaa <__itoa_ncheck>
 ea2:	fb 01       	movw	r30, r22
 ea4:	10 82       	st	Z, r1
 ea6:	cb 01       	movw	r24, r22
 ea8:	08 95       	ret

00000eaa <__itoa_ncheck>:
 eaa:	bb 27       	eor	r27, r27
 eac:	4a 30       	cpi	r20, 0x0A	; 10
 eae:	31 f4       	brne	.+12     	; 0xebc <__itoa_ncheck+0x12>
 eb0:	99 23       	and	r25, r25
 eb2:	22 f4       	brpl	.+8      	; 0xebc <__itoa_ncheck+0x12>
 eb4:	bd e2       	ldi	r27, 0x2D	; 45
 eb6:	90 95       	com	r25
 eb8:	81 95       	neg	r24
 eba:	9f 4f       	sbci	r25, 0xFF	; 255
 ebc:	01 c0       	rjmp	.+2      	; 0xec0 <__utoa_common>

00000ebe <__utoa_ncheck>:
 ebe:	bb 27       	eor	r27, r27

00000ec0 <__utoa_common>:
 ec0:	fb 01       	movw	r30, r22
 ec2:	55 27       	eor	r21, r21
 ec4:	aa 27       	eor	r26, r26
 ec6:	88 0f       	add	r24, r24
 ec8:	99 1f       	adc	r25, r25
 eca:	aa 1f       	adc	r26, r26
 ecc:	a4 17       	cp	r26, r20
 ece:	10 f0       	brcs	.+4      	; 0xed4 <__utoa_common+0x14>
 ed0:	a4 1b       	sub	r26, r20
 ed2:	83 95       	inc	r24
 ed4:	50 51       	subi	r21, 0x10	; 16
 ed6:	b9 f7       	brne	.-18     	; 0xec6 <__utoa_common+0x6>
 ed8:	a0 5d       	subi	r26, 0xD0	; 208
 eda:	aa 33       	cpi	r26, 0x3A	; 58
 edc:	08 f0       	brcs	.+2      	; 0xee0 <__utoa_common+0x20>
 ede:	a9 5d       	subi	r26, 0xD9	; 217
 ee0:	a1 93       	st	Z+, r26
 ee2:	00 97       	sbiw	r24, 0x00	; 0
 ee4:	79 f7       	brne	.-34     	; 0xec4 <__utoa_common+0x4>
 ee6:	b1 11       	cpse	r27, r1
 ee8:	b1 93       	st	Z+, r27
 eea:	11 92       	st	Z+, r1
 eec:	cb 01       	movw	r24, r22
 eee:	00 c0       	rjmp	.+0      	; 0xef0 <strrev>

00000ef0 <strrev>:
 ef0:	dc 01       	movw	r26, r24
 ef2:	fc 01       	movw	r30, r24
 ef4:	67 2f       	mov	r22, r23
 ef6:	71 91       	ld	r23, Z+
 ef8:	77 23       	and	r23, r23
 efa:	e1 f7       	brne	.-8      	; 0xef4 <strrev+0x4>
 efc:	32 97       	sbiw	r30, 0x02	; 2
 efe:	04 c0       	rjmp	.+8      	; 0xf08 <strrev+0x18>
 f00:	7c 91       	ld	r23, X
 f02:	6d 93       	st	X+, r22
 f04:	70 83       	st	Z, r23
 f06:	62 91       	ld	r22, -Z
 f08:	ae 17       	cp	r26, r30
 f0a:	bf 07       	cpc	r27, r31
 f0c:	c8 f3       	brcs	.-14     	; 0xf00 <strrev+0x10>
 f0e:	08 95       	ret

00000f10 <_exit>:
 f10:	f8 94       	cli

00000f12 <__stop_program>:
 f12:	ff cf       	rjmp	.-2      	; 0xf12 <__stop_program>
